(dp0
S'life_expectancy_hivaids_countries'
p1
(lp2
(lp3
I1104555600000
aF53.3
aF46.0
aF51.2
aF47.4
aF46.9
aF46.6
aa(lp4
I946702800000
aF48.7
aF44.3
aF52.3
aF45.8
aF42.4
aF43.2
aa(lp5
I788936400000
aF54.9
aF52.5
aF57.7
aF52.8
aF42.6
aF48.2
aa(lp6
I631170000000
aF62.9
aF60.1
aF61.2
aF59.0
aF45.2
aF57.9
aa(lp7
I473403600000
aF63.8
aF57.4
aF60.9
aF58.5
aF49.8
aF61.6
aa(lp8
I315550800000
aF61.7
aF55.3
aF58.4
aF56.0
aF51.9
aF60.4
aa(lp9
I157784400000
aF59.3
aF52.3
aF55.5
aF52.6
aF51.6
aF57.8
aa(lp10
I18000000
aF56.1
aF49.8
aF53.7
aF49.6
aF50.2
aF55.8
aa(lp11
I-157748400000
aF53.4
aF48.5
aF51.9
aF46.7
aF47.8
aF54.1
aa(lp12
I-315601200000
aF51.6
aF47.8
aF50.0
aF45.0
aF46.1
aF52.5
aa(lp13
I-473367600000
aF49.7
aF45.1
aF48.0
aF43.5
aF44.1
aF50.6
aa(lp14
I-631134000000
aF47.7
aF42.2
aF45.0
aF41.4
aF42.1
aF48.5
aasS'life_expectancy_world_projections'
p15
(lp16
(lp17
I3944696400000
aF77.1
aF81.8
aF87.4
aF84.6
aF88.4
aF86.7
aF81.1
aa(lp18
I3786930000000
aF76.4
aF81.3
aF86.9
aF84.1
aF87.9
aF86.3
aF80.6
aa(lp19
I3629163600000
aF75.7
aF80.9
aF86.4
aF83.7
aF87.4
aF85.9
aF80.1
aa(lp20
I3471310800000
aF74.9
aF80.4
aF85.8
aF83.3
aF86.9
aF85.4
aF79.6
aa(lp21
I3313544400000
aF74.1
aF79.9
aF85.3
aF82.8
aF86.4
aF85.0
aF79.1
aa(lp22
I3155778000000
aF73.3
aF79.4
aF84.7
aF82.4
aF85.8
aF84.6
aF78.6
aa(lp23
I2998011600000
aF72.4
aF78.9
aF84.1
aF81.9
aF85.3
aF84.2
aF78.0
aa(lp24
I2840158800000
aF71.5
aF78.4
aF83.5
aF81.4
aF84.8
aF83.8
aF77.5
aa(lp25
I2682392400000
aF70.5
aF77.9
aF83.0
aF80.9
aF84.3
aF83.4
aF76.9
aa(lp26
I2524626000000
aF69.4
aF77.3
aF82.3
aF80.4
aF83.8
aF82.9
aF76.3
aa(lp27
I2366859600000
aF68.2
aF76.7
aF81.7
aF79.9
aF83.2
aF82.5
aF75.6
aa(lp28
I2209006800000
aF66.9
aF76.0
aF81.1
aF79.3
aF82.7
aF82.0
aF74.9
aa(lp29
I2051240400000
aF65.5
aF75.3
aF80.5
aF78.7
aF82.1
aF81.4
aF74.1
aa(lp30
I1893474000000
aF64.0
aF74.5
aF79.8
aF78.0
aF81.5
aF80.8
aF73.3
aa(lp31
I1735707600000
aF62.4
aF73.6
aF79.1
aF77.3
aF80.9
aF80.2
aF72.4
aa(lp32
I1577854800000
aF60.8
aF72.7
aF78.3
aF76.5
aF80.3
aF79.5
aF71.4
aa(lp33
I1420088400000
aF59.3
aF71.6
aF77.5
aF75.6
aF79.7
aF78.6
aF70.4
aa(lp34
I1262322000000
aF57.4
aF70.4
aF76.5
aF74.7
aF79.0
aF77.7
aF69.3
aa(lp35
I1104555600000
aF55.2
aF69.0
aF75.4
aF73.4
aF78.2
aF76.6
aF67.9
aa(lp36
I946702800000
aF52.9
aF67.6
aF73.8
aF72.1
aF77.4
aF75.2
aF66.4
aa(lp37
I788936400000
aF51.6
aF66.2
aF73.1
aF70.6
aF76.6
aF73.6
aF65.2
aa(lp38
I631170000000
aF51.2
aF64.9
aF72.6
aF68.9
aF75.8
aF72.5
aF64.4
aa(lp39
I473403600000
aF51.2
aF63.5
aF72.9
aF67.1
aF75.0
aF70.9
aF63.6
aa(lp40
I315550800000
aF50.1
aF61.6
aF71.7
aF65.2
aF74.5
aF70.1
aF62.1
aa(lp41
I157784400000
aF48.5
aF59.8
aF71.2
aF63.1
aF73.3
aF68.5
aF60.7
aa(lp42
I18000000
aF46.6
aF57.0
aF70.8
aF60.9
aF71.5
aF66.6
aF58.5
aa(lp43
I-157748400000
aF44.4
aF54.2
aF70.3
aF58.8
aF70.5
aF65.3
aF56.5
aa(lp44
I-315601200000
aF42.4
aF46.4
aF69.6
aF56.8
aF70.2
aF64.1
aF51.2
aa(lp45
I-473367600000
aF40.3
aF45.0
aF68.0
aF54.2
aF69.8
aF62.5
aF49.8
aa(lp46
I-631134000000
aF38.2
aF42.9
aF65.6
aF51.3
aF68.7
aF60.5
aF47.7
aasS'country_death_rates'
p47
(lp48
(lp49
VDZA
p50
aVAlgeria
p51
aI1970
aV0-6 days
p52
aVMale
p53
aI12113
aF187475.3
aa(lp54
VEGY
p55
aVEgypt
p56
aI2000
aV55-59 years
p57
aVFemale
p58
aI9161
aF949.9
aa(lp59
VDNK
p60
aVDenmark
p61
aI2000
aV1-4 years
p62
aVMale
p63
aI38
aF27.9
aa(lp64
VFSM
p65
aVMicronesia, Federated States of
p66
aI1980
aV45-49 years
p67
aVBoth
p68
aI23
aF1079.7
aa(lp69
VECU
p70
aVEcuador
p71
aI2000
aV70-74 years
p72
aVBoth
p73
aI4428
aF2618.0
aa(lp74
VGHA
p75
aVGhana
p76
aI1970
aV25-29 years
p77
aVMale
p78
aI1077
aF331.7
aa(lp79
VERI
p80
aVEritrea
p81
aI1990
aV28-364 days
p82
aVMale
p83
aI2674
aF4864.7
aa(lp84
VDZA
p85
aVAlgeria
p86
aI2010
aV30-34 years
p87
aVBoth
p88
aI3371
aF108.4
aa(lp89
VFSM
p90
aVMicronesia, Federated States of
p91
aI2010
aV15-19 years
p92
aVMale
p93
aI10
aF151.2
aa(lp94
VESP
p95
aVSpain
p96
aI2010
aVAll ages
p97
aVFemale
p98
aI200746
aF888.5
aa(lp99
VGEO
p100
aVGeorgia
p101
aI1980
aV80+ years
p102
aVMale
p103
aI4401
aF16379.8
aa(lp104
VETH
p105
aVEthiopia
p106
aI1990
aV25-29 years
p107
aVFemale
p108
aI12616
aF709.8
aa(lp109
VERI
p110
aVEritrea
p111
aI1990
aV40-44 years
p112
aVBoth
p113
aI1435
aF1037.8
aa(lp114
VEST
p115
aVEstonia
p116
aI2000
aV7-27 days
p117
aVBoth
p118
aI19
aF2679.9
aa(lp119
VDZA
p120
aVAlgeria
p121
aI1970
aV30-34 years
p122
aVBoth
p123
aI2239
aF315.0
aa(lp124
VDZA
p125
aVAlgeria
p126
aI1980
aV0-6 days
p127
aVFemale
p128
aI9223
aF121039.9
aa(lp129
VFJI
p130
aVFiji
p131
aI1980
aV50-54 years
p132
aVFemale
p133
aI106
aF1141.6
aa(lp134
VERI
p135
aVEritrea
p136
aI1990
aV30-34 years
p137
aVMale
p138
aI490
aF624.3
aa(lp139
VFSM
p140
aVMicronesia, Federated States of
p141
aI1970
aV60-64 years
p142
aVBoth
p143
aI38
aF3311.1
aa(lp144
VDZA
p145
aVAlgeria
p146
aI2010
aV75-79 years
p147
aVFemale
p148
aI8861
aF4753.6
aa(lp149
VGBR
p150
aVUnited Kingdom
p151
aI2000
aV65-69 years
p152
aVBoth
p153
aI46974
aF1804.3
aa(lp154
VFRA
p155
aVFrance
p156
aI1980
aV20-24 years
p157
aVMale
p158
aI3718
aF175.3
aa(lp159
VDNK
p160
aVDenmark
p161
aI2010
aV55-59 years
p162
aVBoth
p163
aI2281
aF652.2
aa(lp164
VETH
p165
aVEthiopia
p166
aI2000
aV0-6 days
p167
aVMale
p168
aI55780
aF214515.2
aa(lp169
VEST
p170
aVEstonia
p171
aI2000
aV35-39 years
p172
aVMale
p173
aI255
aF547.7
aa(lp174
VFRA
p175
aVFrance
p176
aI2010
aV45-49 years
p177
aVMale
p178
aI8307
aF388.4
aa(lp179
VECU
p180
aVEcuador
p181
aI1980
aV55-59 years
p182
aVFemale
p183
aI698
aF725.3
aa(lp184
VEST
p185
aVEstonia
p186
aI1970
aV70-74 years
p187
aVMale
p188
aI901
aF6643.8
aa(lp189
VFRA
p190
aVFrance
p191
aI1990
aV30-34 years
p192
aVMale
p193
aI3786
aF177.6
aa(lp194
VETH
p195
aVEthiopia
p196
aI1990
aV20-24 years
p197
aVBoth
p198
aI24467
aF578.2
aa(lp199
VDOM
p200
aVDominican Republic
p201
aI2000
aV30-34 years
p202
aVBoth
p203
aI1605
aF252.2
aa(lp204
VEST
p205
aVEstonia
p206
aI1990
aV55-59 years
p207
aVFemale
p208
aI401
aF801.0
aa(lp209
VGBR
p210
aVUnited Kingdom
p211
aI2010
aV55-59 years
p212
aVBoth
p213
aI19356
aF538.4
aa(lp214
VGAB
p215
aVGabon
p216
aI2000
aVAll ages
p217
aVFemale
p218
aI5891
aF948.1
aa(lp219
VECU
p220
aVEcuador
p221
aI1970
aV45-49 years
p222
aVFemale
p223
aI590
aF564.2
aa(lp224
VFSM
p225
aVMicronesia, Federated States of
p226
aI1980
aV40-44 years
p227
aVBoth
p228
aI17
aF759.4
aa(lp229
VFSM
p230
aVMicronesia, Federated States of
p231
aI2000
aV70-74 years
p232
aVBoth
p233
aI59
aF7176.9
aa(lp234
VGEO
p235
aVGeorgia
p236
aI1980
aV5-9 years
p237
aVBoth
p238
aI350
aF80.7
aa(lp239
VECU
p240
aVEcuador
p241
aI1990
aV75-79 years
p242
aVFemale
p243
aI1790
aF3926.5
aa(lp244
VERI
p245
aVEritrea
p246
aI1970
aV15-19 years
p247
aVMale
p248
aI326
aF360.1
aa(lp249
VEST
p250
aVEstonia
p251
aI2010
aV80+ years
p252
aVFemale
p253
aI4366
aF10267.2
aa(lp254
VETH
p255
aVEthiopia
p256
aI2000
aV28-364 days
p257
aVFemale
p258
aI55227
aF4751.1
aa(lp259
VECU
p260
aVEcuador
p261
aI1990
aV15-19 years
p262
aVBoth
p263
aI1237
aF111.4
aa(lp264
VESP
p265
aVSpain
p266
aI1970
aV70-74 years
p267
aVBoth
p268
aI39983
aF4487.6
aa(lp269
VEST
p270
aVEstonia
p271
aI1980
aV5-9 years
p272
aVFemale
p273
aI24
aF44.6
aa(lp274
VEGY
p275
aVEgypt
p276
aI2000
aV28-364 days
p277
aVFemale
p278
aI13422
aF1754.6
aa(lp279
VESP
p280
aVSpain
p281
aI1980
aV55-59 years
p282
aVFemale
p283
aI5268
aF506.7
aa(lp284
VDZA
p285
aVAlgeria
p286
aI2010
aV5-9 years
p287
aVMale
p288
aI767
aF47.6
aa(lp289
VFIN
p290
aVFinland
p291
aI2000
aV5-9 years
p292
aVFemale
p293
aI19
aF11.5
aa(lp294
VEGY
p295
aVEgypt
p296
aI1970
aV0-6 days
p297
aVFemale
p298
aI17040
aF124359.5
aa(lp299
VESP
p300
aVSpain
p301
aI1980
aV20-24 years
p302
aVBoth
p303
aI2205
aF76.2
aa(lp304
VGBR
p305
aVUnited Kingdom
p306
aI2010
aV55-59 years
p307
aVFemale
p308
aI7816
aF428.0
aa(lp309
VDOM
p310
aVDominican Republic
p311
aI1990
aV50-54 years
p312
aVMale
p313
aI808
aF669.9
aa(lp314
VGBR
p315
aVUnited Kingdom
p316
aI1990
aVAll ages
p317
aVFemale
p318
aI336265
aF1143.3
aa(lp319
VDOM
p320
aVDominican Republic
p321
aI2010
aV60-64 years
p322
aVBoth
p323
aI3250
aF1267.5
aa(lp324
VFJI
p325
aVFiji
p326
aI1990
aV35-39 years
p327
aVMale
p328
aI123
aF562.7
aa(lp329
VEST
p330
aVEstonia
p331
aI1970
aV65-69 years
p332
aVBoth
p333
aI1689
aF2814.7
aa(lp334
VFSM
p335
aVMicronesia, Federated States of
p336
aI2010
aV55-59 years
p337
aVBoth
p338
aI85
aF2204.7
aa(lp339
VDOM
p340
aVDominican Republic
p341
aI1990
aV20-24 years
p342
aVFemale
p343
aI278
aF78.7
aa(lp344
VDOM
p345
aVDominican Republic
p346
aI1970
aV15-19 years
p347
aVBoth
p348
aI436
aF90.5
aa(lp349
VETH
p350
aVEthiopia
p351
aI1990
aV5-9 years
p352
aVBoth
p353
aI18173
aF260.8
aa(lp354
VEGY
p355
aVEgypt
p356
aI1990
aV55-59 years
p357
aVMale
p358
aI13306
aF1757.3
aa(lp359
VGAB
p360
aVGabon
p361
aI2010
aV75-79 years
p362
aVBoth
p363
aI1007
aF8035.2
aa(lp364
VFIN
p365
aVFinland
p366
aI2010
aV15-19 years
p367
aVFemale
p368
aI39
aF24.2
aa(lp369
VGBR
p370
aVUnited Kingdom
p371
aI2000
aV40-44 years
p372
aVMale
p373
aI3922
aF194.1
aa(lp374
VECU
p375
aVEcuador
p376
aI1970
aV60-64 years
p377
aVBoth
p378
aI2004
aF1603.3
aa(lp379
VDZA
p380
aVAlgeria
p381
aI1990
aV1-4 years
p382
aVMale
p383
aI5270
aF327.3
aa(lp384
VGEO
p385
aVGeorgia
p386
aI2000
aV25-29 years
p387
aVBoth
p388
aI439
aF133.1
aa(lp389
VGHA
p390
aVGhana
p391
aI1970
aV80+ years
p392
aVFemale
p393
aI1749
aF13655.4
aa(lp394
VETH
p395
aVEthiopia
p396
aI1980
aV50-54 years
p397
aVBoth
p398
aI24040
aF2303.0
aa(lp399
VGEO
p400
aVGeorgia
p401
aI2000
aV0-6 days
p402
aVBoth
p403
aI793
aF72574.9
aa(lp404
VERI
p405
aVEritrea
p406
aI2010
aV40-44 years
p407
aVFemale
p408
aI774
aF785.1
aa(lp409
VFRA
p410
aVFrance
p411
aI2000
aV65-69 years
p412
aVFemale
p413
aI12717
aF868.8
aa(lp414
VGBR
p415
aVUnited Kingdom
p416
aI1970
aV60-64 years
p417
aVBoth
p418
aI61478
aF1916.4
aa(lp419
VEGY
p420
aVEgypt
p421
aI1980
aV1-4 years
p422
aVMale
p423
aI47247
aF1636.1
aa(lp424
VGAB
p425
aVGabon
p426
aI2000
aV25-29 years
p427
aVFemale
p428
aI303
aF633.6
aa(lp429
VESP
p430
aVSpain
p431
aI1990
aV70-74 years
p432
aVMale
p433
aI21702
aF3971.7
aa(lp434
VERI
p435
aVEritrea
p436
aI1970
aV80+ years
p437
aVFemale
p438
aI448
aF17908.9
aa(lp439
VGEO
p440
aVGeorgia
p441
aI2010
aV30-34 years
p442
aVMale
p443
aI395
aF282.9
aa(lp444
VESP
p445
aVSpain
p446
aI1990
aVAll ages
p447
aVMale
p448
aI178043
aF934.2
aa(lp449
VDNK
p450
aVDenmark
p451
aI2000
aV50-54 years
p452
aVFemale
p453
aI766
aF391.0
aa(lp454
VECU
p455
aVEcuador
p456
aI2010
aV20-24 years
p457
aVMale
p458
aI1568
aF233.3
aa(lp459
VFRA
p460
aVFrance
p461
aI2000
aV20-24 years
p462
aVFemale
p463
aI668
aF36.0
aa(lp464
VFIN
p465
aVFinland
p466
aI1970
aV15-19 years
p467
aVFemale
p468
aI100
aF47.9
aa(lp469
VDZA
p470
aVAlgeria
p471
aI2000
aV1-4 years
p472
aVMale
p473
aI2935
aF227.0
aa(lp474
VFJI
p475
aVFiji
p476
aI1970
aV1-4 years
p477
aVFemale
p478
aI112
aF341.8
aa(lp479
VEST
p480
aVEstonia
p481
aI2010
aV35-39 years
p482
aVFemale
p483
aI30
aF64.4
aa(lp484
VESP
p485
aVSpain
p486
aI1980
aV40-44 years
p487
aVFemale
p488
aI1375
aF131.7
aa(lp489
VFJI
p490
aVFiji
p491
aI2010
aV50-54 years
p492
aVMale
p493
aI305
aF1313.4
aa(lp494
VGBR
p495
aVUnited Kingdom
p496
aI1970
aV10-14 years
p497
aVFemale
p498
aI466
aF23.4
aa(lp499
VDNK
p500
aVDenmark
p501
aI2010
aV0-6 days
p502
aVBoth
p503
aI109
aF8884.2
aa(lp504
VGEO
p505
aVGeorgia
p506
aI2010
aV15-19 years
p507
aVFemale
p508
aI70
aF41.2
aa(lp509
VGEO
p510
aVGeorgia
p511
aI1990
aVAll ages
p512
aVFemale
p513
aI23524
aF822.6
aa(lp514
VEST
p515
aVEstonia
p516
aI1990
aV35-39 years
p517
aVBoth
p518
aI349
aF301.7
aa(lp519
VFIN
p520
aVFinland
p521
aI2000
aV1-4 years
p522
aVMale
p523
aI27
aF22.1
aa(lp524
VECU
p525
aVEcuador
p526
aI1980
aV70-74 years
p527
aVBoth
p528
aI2857
aF3186.6
aa(lp529
VFSM
p530
aVMicronesia, Federated States of
p531
aI1970
aV30-34 years
p532
aVFemale
p533
aI6
aF347.9
aa(lp534
VECU
p535
aVEcuador
p536
aI1970
aV50-54 years
p537
aVFemale
p538
aI615
aF689.7
aa(lp539
VESP
p540
aVSpain
p541
aI2000
aV7-27 days
p542
aVBoth
p543
aI278
aF1222.8
aa(lp544
VGAB
p545
aVGabon
p546
aI1990
aV65-69 years
p547
aVMale
p548
aI461
aF5023.4
aa(lp549
VGAB
p550
aVGabon
p551
aI2000
aV45-49 years
p552
aVBoth
p553
aI643
aF1336.6
aa(lp554
VGBR
p555
aVUnited Kingdom
p556
aI2010
aV10-14 years
p557
aVMale
p558
aI248
aF13.6
aa(lp559
VFIN
p560
aVFinland
p561
aI1990
aV50-54 years
p562
aVMale
p563
aI1148
aF835.9
aa(lp564
VDNK
p565
aVDenmark
p566
aI2010
aV7-27 days
p567
aVBoth
p568
aI30
aF814.2
aa(lp569
VFSM
p570
aVMicronesia, Federated States of
p571
aI2000
aV65-69 years
p572
aVMale
p573
aI45
aF5637.2
aa(lp574
VGEO
p575
aVGeorgia
p576
aI2010
aV7-27 days
p577
aVMale
p578
aI70
aF4508.9
aa(lp579
VERI
p580
aVEritrea
p581
aI1970
aV5-9 years
p582
aVBoth
p583
aI771
aF277.8
aa(lp584
VFJI
p585
aVFiji
p586
aI2000
aV10-14 years
p587
aVMale
p588
aI23
aF51.0
aa(lp589
VEGY
p590
aVEgypt
p591
aI2000
aV40-44 years
p592
aVBoth
p593
aI13281
aF358.4
aa(lp594
VDZA
p595
aVAlgeria
p596
aI2000
aV0-6 days
p597
aVMale
p598
aI5582
aF90536.1
aa(lp599
VFSM
p600
aVMicronesia, Federated States of
p601
aI1980
aV45-49 years
p602
aVFemale
p603
aI9
aF810.0
aa(lp604
VGEO
p605
aVGeorgia
p606
aI1980
aV60-64 years
p607
aVFemale
p608
aI1169
aF1139.0
aa(lp609
VETH
p610
aVEthiopia
p611
aI1990
aV55-59 years
p612
aVFemale
p613
aI14370
aF2487.8
aa(lp614
VDOM
p615
aVDominican Republic
p616
aI2010
aV80+ years
p617
aVFemale
p618
aI9188
aF12382.5
aa(lp619
VDNK
p620
aVDenmark
p621
aI2000
aV35-39 years
p622
aVBoth
p623
aI484
aF118.7
aa(lp624
VGBR
p625
aVUnited Kingdom
p626
aI1990
aV5-9 years
p627
aVFemale
p628
aI265
aF14.9
aa(lp629
VFRA
p630
aVFrance
p631
aI1990
aV20-24 years
p632
aVBoth
p633
aI4092
aF95.9
aa(lp634
VFSM
p635
aVMicronesia, Federated States of
p636
aI1980
aV15-19 years
p637
aVMale
p638
aI8
aF195.7
aa(lp639
VFJI
p640
aVFiji
p641
aI1980
aV5-9 years
p642
aVBoth
p643
aI52
aF65.9
aa(lp644
VERI
p645
aVEritrea
p646
aI2010
aV25-29 years
p647
aVFemale
p648
aI963
aF402.8
aa(lp649
VFIN
p650
aVFinland
p651
aI1970
aV75-79 years
p652
aVBoth
p653
aI6374
aF8878.7
aa(lp654
VERI
p655
aVEritrea
p656
aI1980
aV7-27 days
p657
aVMale
p658
aI733
aF24339.6
aa(lp659
VEST
p660
aVEstonia
p661
aI1980
aV35-39 years
p662
aVMale
p663
aI268
aF592.0
aa(lp664
VEST
p665
aVEstonia
p666
aI1980
aV7-27 days
p667
aVBoth
p668
aI53
aF4199.0
aa(lp669
VEST
p670
aVEstonia
p671
aI1990
aV5-9 years
p672
aVMale
p673
aI46
aF77.0
aa(lp674
VGEO
p675
aVGeorgia
p676
aI1980
aV1-4 years
p677
aVFemale
p678
aI530
aF325.8
aa(lp679
VFJI
p680
aVFiji
p681
aI2010
aV30-34 years
p682
aVMale
p683
aI106
aF312.2
aa(lp684
VGEO
p685
aVGeorgia
p686
aI1980
aV50-54 years
p687
aVMale
p688
aI1869
aF1141.1
aa(lp689
VEST
p690
aVEstonia
p691
aI1980
aV70-74 years
p692
aVFemale
p693
aI1329
aF3756.4
aa(lp694
VECU
p695
aVEcuador
p696
aI1980
aV0-6 days
p697
aVFemale
p698
aI1158
aF42738.0
aa(lp699
VFJI
p700
aVFiji
p701
aI1990
aV7-27 days
p702
aVFemale
p703
aI29
aF4909.9
aa(lp704
VESP
p705
aVSpain
p706
aI2010
aV40-44 years
p707
aVFemale
p708
aI1647
aF92.6
aa(lp709
VFJI
p710
aVFiji
p711
aI1980
aV40-44 years
p712
aVMale
p713
aI128
aF883.3
aa(lp714
VEGY
p715
aVEgypt
p716
aI2010
aV0-6 days
p717
aVMale
p718
aI10486
aF57014.8
aa(lp719
VESP
p720
aVSpain
p721
aI1970
aV0-6 days
p722
aVMale
p723
aI6032
aF92696.0
aa(lp724
VETH
p725
aVEthiopia
p726
aI2000
aV7-27 days
p727
aVFemale
p728
aI15173
aF20313.7
aa(lp729
VEGY
p730
aVEgypt
p731
aI1980
aV28-364 days
p732
aVBoth
p733
aI97964
aF6560.1
aa(lp734
VETH
p735
aVEthiopia
p736
aI2000
aV35-39 years
p737
aVMale
p738
aI15389
aF955.3
aa(lp739
VEST
p740
aVEstonia
p741
aI1970
aV50-54 years
p742
aVFemale
p743
aI172
aF507.0
aa(lp744
VEGY
p745
aVEgypt
p746
aI2010
aV10-14 years
p747
aVBoth
p748
aI3303
aF40.9
aa(lp749
VDNK
p750
aVDenmark
p751
aI2000
aV65-69 years
p752
aVFemale
p753
aI2032
aF1761.8
aa(lp754
VETH
p755
aVEthiopia
p756
aI2000
aVAll ages
p757
aVBoth
p758
aI872696
aF1329.9
aa(lp759
VGHA
p760
aVGhana
p761
aI1970
aV15-19 years
p762
aVBoth
p763
aI1579
aF189.9
aa(lp764
VFRA
p765
aVFrance
p766
aI1990
aV1-4 years
p767
aVBoth
p768
aI1233
aF40.5
aa(lp769
VGHA
p770
aVGhana
p771
aI1970
aV0-6 days
p772
aVMale
p773
aI8092
aF204034.1
aa(lp774
VGEO
p775
aVGeorgia
p776
aI2010
aV70-74 years
p777
aVFemale
p778
aI3032
aF2447.0
aa(lp779
VFRA
p780
aVFrance
p781
aI1980
aV28-364 days
p782
aVFemale
p783
aI1353
aF405.4
aa(lp784
VETH
p785
aVEthiopia
p786
aI1990
aV35-39 years
p787
aVMale
p788
aI13211
aF1117.9
aa(lp789
VGBR
p790
aVUnited Kingdom
p791
aI1970
aV20-24 years
p792
aVBoth
p793
aI3085
aF72.6
aa(lp794
VGBR
p795
aVUnited Kingdom
p796
aI2000
aV40-44 years
p797
aVBoth
p798
aI6579
aF161.5
aa(lp799
VDOM
p800
aVDominican Republic
p801
aI1980
aV25-29 years
p802
aVMale
p803
aI312
aF145.7
aa(lp804
VEST
p805
aVEstonia
p806
aI2010
aV80+ years
p807
aVBoth
p808
aI6100
aF10877.7
aa(lp809
VERI
p810
aVEritrea
p811
aI2000
aV55-59 years
p812
aVBoth
p813
aI3382
aF4043.0
aa(lp814
VEGY
p815
aVEgypt
p816
aI2010
aV15-19 years
p817
aVMale
p818
aI4908
aF122.8
aa(lp819
VFJI
p820
aVFiji
p821
aI2000
aV1-4 years
p822
aVBoth
p823
aI140
aF175.5
aa(lp824
VDOM
p825
aVDominican Republic
p826
aI1980
aV15-19 years
p827
aVBoth
p828
aI525
aF77.5
aa(lp829
VGAB
p830
aVGabon
p831
aI1980
aV50-54 years
p832
aVFemale
p833
aI139
aF978.4
aa(lp834
VEST
p835
aVEstonia
p836
aI2000
aV7-27 days
p837
aVBoth
p838
aI19
aF2679.9
aa(lp839
VFSM
p840
aVMicronesia, Federated States of
p841
aI2010
aV30-34 years
p842
aVFemale
p843
aI7
aF229.9
aa(lp844
VGAB
p845
aVGabon
p846
aI1980
aV80+ years
p847
aVMale
p848
aI323
aF14786.1
aa(lp849
VGEO
p850
aVGeorgia
p851
aI2010
aV70-74 years
p852
aVMale
p853
aI4755
aF5559.3
aa(lp854
VGEO
p855
aVGeorgia
p856
aI2000
aV0-6 days
p857
aVFemale
p858
aI317
aF61358.9
aa(lp859
VDNK
p860
aVDenmark
p861
aI2010
aV50-54 years
p862
aVBoth
p863
aI1647
aF450.8
aa(lp864
VETH
p865
aVEthiopia
p866
aI2000
aV70-74 years
p867
aVMale
p868
aI18138
aF7001.3
aa(lp869
VFRA
p870
aVFrance
p871
aI1990
aV10-14 years
p872
aVMale
p873
aI459
aF23.9
aa(lp874
VFSM
p875
aVMicronesia, Federated States of
p876
aI2000
aV15-19 years
p877
aVBoth
p878
aI19
aF144.9
aa(lp879
VGEO
p880
aVGeorgia
p881
aI2010
aV65-69 years
p882
aVBoth
p883
aI3534
aF2393.3
aa(lp884
VERI
p885
aVEritrea
p886
aI2010
aV28-364 days
p887
aVBoth
p888
aI4053
aF2406.8
aa(lp889
VEST
p890
aVEstonia
p891
aI2010
aV65-69 years
p892
aVMale
p893
aI869
aF3643.5
aa(lp894
VGAB
p895
aVGabon
p896
aI1970
aV40-44 years
p897
aVMale
p898
aI163
aF1081.5
aa(lp899
VEST
p900
aVEstonia
p901
aI1980
aV60-64 years
p902
aVMale
p903
aI577
aF2915.1
aa(lp904
VDOM
p905
aVDominican Republic
p906
aI1970
aV30-34 years
p907
aVBoth
p908
aI456
aF176.1
aa(lp909
VDOM
p910
aVDominican Republic
p911
aI1970
aV5-9 years
p912
aVBoth
p913
aI975
aF135.1
aa(lp914
VGHA
p915
aVGhana
p916
aI1980
aV28-364 days
p917
aVMale
p918
aI9913
aF4716.9
aa(lp919
VFJI
p920
aVFiji
p921
aI1980
aV75-79 years
p922
aVBoth
p923
aI259
aF9498.2
aa(lp924
VDZA
p925
aVAlgeria
p926
aI1980
aV15-19 years
p927
aVMale
p928
aI2083
aF199.3
aa(lp929
VGEO
p930
aVGeorgia
p931
aI2010
aVAll ages
p932
aVFemale
p933
aI21241
aF921.9
aa(lp934
VFJI
p935
aVFiji
p936
aI2010
aV70-74 years
p937
aVBoth
p938
aI673
aF5746.7
aa(lp939
VFJI
p940
aVFiji
p941
aI2000
aV70-74 years
p942
aVMale
p943
aI269
aF7286.1
aa(lp944
VDZA
p945
aVAlgeria
p946
aI1970
aV7-27 days
p947
aVFemale
p948
aI6206
aF34321.0
aa(lp949
VFIN
p950
aVFinland
p951
aI1980
aV1-4 years
p952
aVBoth
p953
aI101
aF40.1
aa(lp954
VEST
p955
aVEstonia
p956
aI1980
aV35-39 years
p957
aVFemale
p958
aI74
aF156.2
aa(lp959
VDNK
p960
aVDenmark
p961
aI2010
aV70-74 years
p962
aVBoth
p963
aI6001
aF2726.8
aa(lp964
VEST
p965
aVEstonia
p966
aI2000
aV40-44 years
p967
aVBoth
p968
aI559
aF561.8
aa(lp969
VECU
p970
aVEcuador
p971
aI2010
aV45-49 years
p972
aVFemale
p973
aI913
aF245.1
aa(lp974
VFRA
p975
aVFrance
p976
aI2010
aV65-69 years
p977
aVBoth
p978
aI30896
aF1197.7
aa(lp979
VDOM
p980
aVDominican Republic
p981
aI2010
aV30-34 years
p982
aVMale
p983
aI735
aF207.7
aa(lp984
VGAB
p985
aVGabon
p986
aI2010
aV30-34 years
p987
aVFemale
p988
aI381
aF719.8
aa(lp989
VFJI
p990
aVFiji
p991
aI1970
aV70-74 years
p992
aVBoth
p993
aI224
aF6373.6
aa(lp994
VFSM
p995
aVMicronesia, Federated States of
p996
aI1970
aV80+ years
p997
aVMale
p998
aI19
aF18074.5
aa(lp999
VESP
p1000
aVSpain
p1001
aI1980
aV50-54 years
p1002
aVMale
p1003
aI7766
aF710.9
aa(lp1004
VEST
p1005
aVEstonia
p1006
aI1980
aV7-27 days
p1007
aVMale
p1008
aI32
aF4907.3
aa(lp1009
VFJI
p1010
aVFiji
p1011
aI1970
aV45-49 years
p1012
aVMale
p1013
aI100
aF1081.9
aa(lp1014
VETH
p1015
aVEthiopia
p1016
aI1980
aV10-14 years
p1017
aVFemale
p1018
aI5524
aF255.0
aa(lp1019
VFJI
p1020
aVFiji
p1021
aI1990
aV7-27 days
p1022
aVMale
p1023
aI31
aF5027.6
aa(lp1024
VFJI
p1025
aVFiji
p1026
aI2010
aV7-27 days
p1027
aVBoth
p1028
aI51
aF4803.8
aa(lp1029
VFJI
p1030
aVFiji
p1031
aI2000
aV10-14 years
p1032
aVBoth
p1033
aI46
aF51.3
aa(lp1034
VDOM
p1035
aVDominican Republic
p1036
aI2010
aV25-29 years
p1037
aVFemale
p1038
aI452
aF110.7
aa(lp1039
VGAB
p1040
aVGabon
p1041
aI1980
aV1-4 years
p1042
aVFemale
p1043
aI500
aF1207.6
aa(lp1044
VEST
p1045
aVEstonia
p1046
aI2010
aV50-54 years
p1047
aVFemale
p1048
aI185
aF367.0
aa(lp1049
VFRA
p1050
aVFrance
p1051
aI1970
aV65-69 years
p1052
aVBoth
p1053
aI60813
aF2581.6
aa(lp1054
VGAB
p1055
aVGabon
p1056
aI1980
aV5-9 years
p1057
aVBoth
p1058
aI130
aF155.7
aa(lp1059
VFJI
p1060
aVFiji
p1061
aI1980
aV20-24 years
p1062
aVBoth
p1063
aI156
aF239.0
aa(lp1064
VFIN
p1065
aVFinland
p1066
aI1980
aV65-69 years
p1067
aVMale
p1068
aI3311
aF3986.5
aa(lp1069
VDOM
p1070
aVDominican Republic
p1071
aI1970
aV7-27 days
p1072
aVMale
p1073
aI1530
aF28840.0
aa(lp1074
VESP
p1075
aVSpain
p1076
aI2010
aV80+ years
p1077
aVBoth
p1078
aI232216
aF10076.4
aa(lp1079
VESP
p1080
aVSpain
p1081
aI1980
aV28-364 days
p1082
aVBoth
p1083
aI2192
aF408.2
aa(lp1084
VFRA
p1085
aVFrance
p1086
aI2010
aV40-44 years
p1087
aVFemale
p1088
aI2509
aF115.2
aa(lp1089
VFIN
p1090
aVFinland
p1091
aI1990
aV25-29 years
p1092
aVBoth
p1093
aI360
aF95.4
aa(lp1094
VFIN
p1095
aVFinland
p1096
aI2010
aV40-44 years
p1097
aVFemale
p1098
aI181
aF104.2
aa(lp1099
VGBR
p1100
aVUnited Kingdom
p1101
aI2000
aV7-27 days
p1102
aVBoth
p1103
aI555
aF1393.0
aa(lp1104
VETH
p1105
aVEthiopia
p1106
aI2010
aV1-4 years
p1107
aVBoth
p1108
aI64272
aF662.8
aa(lp1109
VESP
p1110
aVSpain
p1111
aI1990
aV5-9 years
p1112
aVBoth
p1113
aI565
aF22.4
aa(lp1114
VFJI
p1115
aVFiji
p1116
aI1990
aV65-69 years
p1117
aVMale
p1118
aI232
aF5129.8
aa(lp1119
VGAB
p1120
aVGabon
p1121
aI1990
aV1-4 years
p1122
aVBoth
p1123
aI1059
aF884.3
aa(lp1124
VERI
p1125
aVEritrea
p1126
aI1990
aV70-74 years
p1127
aVFemale
p1128
aI1013
aF7646.2
aa(lp1129
VFIN
p1130
aVFinland
p1131
aI2000
aVAll ages
p1132
aVMale
p1133
aI24122
aF954.2
aa(lp1134
VFRA
p1135
aVFrance
p1136
aI2010
aV20-24 years
p1137
aVFemale
p1138
aI507
aF25.7
aa(lp1139
VDNK
p1140
aVDenmark
p1141
aI2010
aVAll ages
p1142
aVMale
p1143
aI27671
aF1012.2
aa(lp1144
VFJI
p1145
aVFiji
p1146
aI1970
aV28-364 days
p1147
aVMale
p1148
aI179
aF2214.4
aa(lp1149
VDZA
p1150
aVAlgeria
p1151
aI1980
aV25-29 years
p1152
aVMale
p1153
aI2106
aF307.2
aa(lp1154
VESP
p1155
aVSpain
p1156
aI2000
aV70-74 years
p1157
aVBoth
p1158
aI42734
aF2381.1
aa(lp1159
VFJI
p1160
aVFiji
p1161
aI2010
aV80+ years
p1162
aVFemale
p1163
aI350
aF15060.9
aa(lp1164
VECU
p1165
aVEcuador
p1166
aI1970
aV1-4 years
p1167
aVMale
p1168
aI7038
aF1663.1
aa(lp1169
VETH
p1170
aVEthiopia
p1171
aI1970
aV7-27 days
p1172
aVBoth
p1173
aI32910
aF44237.2
aa(lp1174
VFJI
p1175
aVFiji
p1176
aI2010
aV5-9 years
p1177
aVFemale
p1178
aI17
aF42.6
aa(lp1179
VFSM
p1180
aVMicronesia, Federated States of
p1181
aI1990
aV10-14 years
p1182
aVBoth
p1183
aI9
aF75.1
aa(lp1184
VERI
p1185
aVEritrea
p1186
aI2000
aV28-364 days
p1187
aVBoth
p1188
aI5223
aF4219.7
aa(lp1189
VERI
p1190
aVEritrea
p1191
aI1970
aV70-74 years
p1192
aVFemale
p1193
aI678
aF8691.3
aa(lp1194
VDOM
p1195
aVDominican Republic
p1196
aI2000
aV75-79 years
p1197
aVFemale
p1198
aI1693
aF4179.5
aa(lp1199
VFSM
p1200
aVMicronesia, Federated States of
p1201
aI2010
aV45-49 years
p1202
aVBoth
p1203
aI49
aF1055.0
aa(lp1204
VGAB
p1205
aVGabon
p1206
aI2010
aV5-9 years
p1207
aVMale
p1208
aI102
aF115.4
aa(lp1209
VEGY
p1210
aVEgypt
p1211
aI1990
aV25-29 years
p1212
aVBoth
p1213
aI8577
aF203.3
aa(lp1214
VFJI
p1215
aVFiji
p1216
aI1990
aV7-27 days
p1217
aVMale
p1218
aI31
aF5027.6
aa(lp1219
VESP
p1220
aVSpain
p1221
aI1980
aV20-24 years
p1222
aVFemale
p1223
aI546
aF38.1
aa(lp1224
VGEO
p1225
aVGeorgia
p1226
aI2010
aV20-24 years
p1227
aVFemale
p1228
aI97
aF53.1
aa(lp1229
VFRA
p1230
aVFrance
p1231
aI2000
aVAll ages
p1232
aVMale
p1233
aI275136
aF958.8
aa(lp1234
VGAB
p1235
aVGabon
p1236
aI1990
aV55-59 years
p1237
aVMale
p1238
aI282
aF2497.3
aa(lp1239
VETH
p1240
aVEthiopia
p1241
aI2000
aV1-4 years
p1242
aVBoth
p1243
aI145131
aF1564.1
aa(lp1244
VGAB
p1245
aVGabon
p1246
aI1970
aV30-34 years
p1247
aVFemale
p1248
aI78
aF439.6
aa(lp1249
VDZA
p1250
aVAlgeria
p1251
aI1970
aV50-54 years
p1252
aVFemale
p1253
aI1926
aF973.7
aa(lp1254
VGBR
p1255
aVUnited Kingdom
p1256
aI2010
aV65-69 years
p1257
aVFemale
p1258
aI16576
aF1085.2
aa(lp1259
VERI
p1260
aVEritrea
p1261
aI1970
aV15-19 years
p1262
aVFemale
p1263
aI306
aF334.2
aa(lp1264
VGEO
p1265
aVGeorgia
p1266
aI1970
aV25-29 years
p1267
aVMale
p1268
aI375
aF294.0
aa(lp1269
VETH
p1270
aVEthiopia
p1271
aI1980
aV75-79 years
p1272
aVBoth
p1273
aI20352
aF12334.8
aa(lp1274
VETH
p1275
aVEthiopia
p1276
aI2000
aV1-4 years
p1277
aVMale
p1278
aI80749
aF1737.2
aa(lp1279
VDOM
p1280
aVDominican Republic
p1281
aI1980
aV15-19 years
p1282
aVBoth
p1283
aI525
aF77.5
aa(lp1284
VECU
p1285
aVEcuador
p1286
aI1970
aV10-14 years
p1287
aVMale
p1288
aI603
aF162.3
aa(lp1289
VECU
p1290
aVEcuador
p1291
aI1980
aV10-14 years
p1292
aVMale
p1293
aI576
aF114.9
aa(lp1294
VGAB
p1295
aVGabon
p1296
aI2000
aV65-69 years
p1297
aVBoth
p1298
aI877
aF4309.5
aa(lp1299
VECU
p1300
aVEcuador
p1301
aI2010
aV35-39 years
p1302
aVBoth
p1303
aI1914
aF197.0
aa(lp1304
VERI
p1305
aVEritrea
p1306
aI1970
aV65-69 years
p1307
aVFemale
p1308
aI676
aF5778.4
aa(lp1309
VDNK
p1310
aVDenmark
p1311
aI2000
aV1-4 years
p1312
aVBoth
p1313
aI67
aF25.3
aa(lp1314
VDZA
p1315
aVAlgeria
p1316
aI1980
aV40-44 years
p1317
aVFemale
p1318
aI2039
aF525.1
aa(lp1319
VDOM
p1320
aVDominican Republic
p1321
aI1980
aV60-64 years
p1322
aVFemale
p1323
aI669
aF1325.1
aa(lp1324
VFJI
p1325
aVFiji
p1326
aI2010
aV45-49 years
p1327
aVFemale
p1328
aI175
aF668.5
aa(lp1329
VEST
p1330
aVEstonia
p1331
aI1970
aV80+ years
p1332
aVBoth
p1333
aI4016
aF15227.0
aa(lp1334
VERI
p1335
aVEritrea
p1336
aI1970
aV75-79 years
p1337
aVBoth
p1338
aI948
aF12153.9
aa(lp1339
VFSM
p1340
aVMicronesia, Federated States of
p1341
aI1980
aV40-44 years
p1342
aVMale
p1343
aI10
aF934.0
aa(lp1344
VGAB
p1345
aVGabon
p1346
aI2010
aV7-27 days
p1347
aVMale
p1348
aI98
aF8396.7
aa(lp1349
VGBR
p1350
aVUnited Kingdom
p1351
aI2000
aV60-64 years
p1352
aVMale
p1353
aI19369
aF1368.9
aa(lp1354
VGHA
p1355
aVGhana
p1356
aI1990
aV10-14 years
p1357
aVFemale
p1358
aI957
aF104.7
aa(lp1359
VGAB
p1360
aVGabon
p1361
aI2000
aV35-39 years
p1362
aVMale
p1363
aI424
aF1255.6
aa(lp1364
VFIN
p1365
aVFinland
p1366
aI2000
aV30-34 years
p1367
aVMale
p1368
aI255
aF142.0
aa(lp1369
VFRA
p1370
aVFrance
p1371
aI1990
aV80+ years
p1372
aVBoth
p1373
aI237987
aF11241.8
aa(lp1374
VFSM
p1375
aVMicronesia, Federated States of
p1376
aI2000
aV45-49 years
p1377
aVMale
p1378
aI34
aF1355.8
aa(lp1379
VFSM
p1380
aVMicronesia, Federated States of
p1381
aI2000
aV5-9 years
p1382
aVMale
p1383
aI3
aF36.1
aa(lp1384
VERI
p1385
aVEritrea
p1386
aI1980
aV55-59 years
p1387
aVFemale
p1388
aI718
aF2279.0
aa(lp1389
VFSM
p1390
aVMicronesia, Federated States of
p1391
aI2000
aV25-29 years
p1392
aVBoth
p1393
aI19
aF261.7
aa(lp1394
VGBR
p1395
aVUnited Kingdom
p1396
aI1980
aV70-74 years
p1397
aVBoth
p1398
aI103205
aF4339.0
aa(lp1399
VECU
p1400
aVEcuador
p1401
aI1970
aV25-29 years
p1402
aVMale
p1403
aI629
aF310.6
aa(lp1404
VESP
p1405
aVSpain
p1406
aI2000
aV40-44 years
p1407
aVFemale
p1408
aI1550
aF107.4
aa(lp1409
VETH
p1410
aVEthiopia
p1411
aI1990
aV60-64 years
p1412
aVMale
p1413
aI19184
aF4696.1
aa(lp1414
VFJI
p1415
aVFiji
p1416
aI2000
aV35-39 years
p1417
aVMale
p1418
aI148
aF537.3
aa(lp1419
VFJI
p1420
aVFiji
p1421
aI1980
aV60-64 years
p1422
aVMale
p1423
aI234
aF3808.8
aa(lp1424
VGAB
p1425
aVGabon
p1426
aI2010
aV70-74 years
p1427
aVMale
p1428
aI588
aF7438.2
aa(lp1429
VFSM
p1430
aVMicronesia, Federated States of
p1431
aI1970
aV60-64 years
p1432
aVMale
p1433
aI23
aF3907.7
aa(lp1434
VFJI
p1435
aVFiji
p1436
aI1990
aV28-364 days
p1437
aVFemale
p1438
aI93
aF991.8
aa(lp1439
VETH
p1440
aVEthiopia
p1441
aI2000
aV70-74 years
p1442
aVBoth
p1443
aI39798
aF7062.5
aa(lp1444
VECU
p1445
aVEcuador
p1446
aI2000
aV50-54 years
p1447
aVBoth
p1448
aI2379
aF566.7
aa(lp1449
VFJI
p1450
aVFiji
p1451
aI1970
aV30-34 years
p1452
aVMale
p1453
aI59
aF375.6
aa(lp1454
VFRA
p1455
aVFrance
p1456
aI2010
aV5-9 years
p1457
aVBoth
p1458
aI331
aF8.6
aa(lp1459
VERI
p1460
aVEritrea
p1461
aI2000
aV7-27 days
p1462
aVMale
p1463
aI674
aF16735.9
aa(lp1464
VEGY
p1465
aVEgypt
p1466
aI1990
aV1-4 years
p1467
aVBoth
p1468
aI42310
aF617.8
aa(lp1469
VGAB
p1470
aVGabon
p1471
aI2000
aV20-24 years
p1472
aVMale
p1473
aI300
aF550.8
aa(lp1474
VGBR
p1475
aVUnited Kingdom
p1476
aI1970
aV15-19 years
p1477
aVBoth
p1478
aI2530
aF65.6
aa(lp1479
VDNK
p1480
aVDenmark
p1481
aI2010
aV15-19 years
p1482
aVMale
p1483
aI80
aF44.4
aa(lp1484
VETH
p1485
aVEthiopia
p1486
aI1970
aV1-4 years
p1487
aVMale
p1488
aI69887
aF3495.1
aa(lp1489
VFJI
p1490
aVFiji
p1491
aI2010
aV30-34 years
p1492
aVFemale
p1493
aI69
aF214.7
aa(lp1494
VDOM
p1495
aVDominican Republic
p1496
aI1970
aV25-29 years
p1497
aVFemale
p1498
aI191
aF137.3
aa(lp1499
VESP
p1500
aVSpain
p1501
aI1970
aV30-34 years
p1502
aVMale
p1503
aI1631
aF161.1
aa(lp1504
VFJI
p1505
aVFiji
p1506
aI1970
aV25-29 years
p1507
aVMale
p1508
aI59
aF300.0
aa(lp1509
VDNK
p1510
aVDenmark
p1511
aI2010
aV35-39 years
p1512
aVMale
p1513
aI217
aF111.5
aa(lp1514
VERI
p1515
aVEritrea
p1516
aI2010
aV60-64 years
p1517
aVFemale
p1518
aI1331
aF2701.4
aa(lp1519
VGBR
p1520
aVUnited Kingdom
p1521
aI2000
aV1-4 years
p1522
aVFemale
p1523
aI324
aF23.0
aa(lp1524
VECU
p1525
aVEcuador
p1526
aI2010
aV25-29 years
p1527
aVFemale
p1528
aI509
aF82.5
aa(lp1529
VEGY
p1530
aVEgypt
p1531
aI2000
aV7-27 days
p1532
aVFemale
p1533
aI4581
aF9458.3
aa(lp1534
VFSM
p1535
aVMicronesia, Federated States of
p1536
aI2010
aV10-14 years
p1537
aVMale
p1538
aI3
aF37.2
aa(lp1539
VEST
p1540
aVEstonia
p1541
aI1980
aV28-364 days
p1542
aVMale
p1543
aI71
aF683.2
aa(lp1544
VESP
p1545
aVSpain
p1546
aI2010
aV80+ years
p1547
aVMale
p1548
aI94172
aF11409.6
aa(lp1549
VEST
p1550
aVEstonia
p1551
aI2000
aV55-59 years
p1552
aVMale
p1553
aI786
aF2415.9
aa(lp1554
VERI
p1555
aVEritrea
p1556
aI2010
aV30-34 years
p1557
aVBoth
p1558
aI2323
aF507.9
aa(lp1559
VDOM
p1560
aVDominican Republic
p1561
aI2000
aV45-49 years
p1562
aVFemale
p1563
aI531
aF283.1
aa(lp1564
VGEO
p1565
aVGeorgia
p1566
aI2010
aV0-6 days
p1567
aVFemale
p1568
aI230
aF49071.7
aa(lp1569
VEST
p1570
aVEstonia
p1571
aI2010
aV1-4 years
p1572
aVMale
p1573
aI13
aF40.1
aa(lp1574
VGAB
p1575
aVGabon
p1576
aI2010
aV80+ years
p1577
aVBoth
p1578
aI1715
aF14274.5
aa(lp1579
VERI
p1580
aVEritrea
p1581
aI1990
aV70-74 years
p1582
aVMale
p1583
aI761
aF7854.9
aa(lp1584
VFSM
p1585
aVMicronesia, Federated States of
p1586
aI1980
aV10-14 years
p1587
aVBoth
p1588
aI10
aF97.0
aa(lp1589
VECU
p1590
aVEcuador
p1591
aI1980
aV80+ years
p1592
aVFemale
p1593
aI2490
aF9041.5
aa(lp1594
VECU
p1595
aVEcuador
p1596
aI1990
aV10-14 years
p1597
aVFemale
p1598
aI342
aF55.8
aa(lp1599
VFJI
p1600
aVFiji
p1601
aI1990
aV75-79 years
p1602
aVBoth
p1603
aI343
aF9377.8
aa(lp1604
VGHA
p1605
aVGhana
p1606
aI1970
aV20-24 years
p1607
aVMale
p1608
aI1127
aF286.8
aa(lp1609
VEST
p1610
aVEstonia
p1611
aI1970
aV15-19 years
p1612
aVBoth
p1613
aI107
aF105.7
aa(lp1614
VEGY
p1615
aVEgypt
p1616
aI1970
aV80+ years
p1617
aVBoth
p1618
aI14369
aF14816.1
aa(lp1619
VESP
p1620
aVSpain
p1621
aI2000
aV10-14 years
p1622
aVMale
p1623
aI216
aF19.6
aa(lp1624
VECU
p1625
aVEcuador
p1626
aI2000
aV35-39 years
p1627
aVBoth
p1628
aI1845
aF237.3
aa(lp1629
VDZA
p1630
aVAlgeria
p1631
aI1990
aV0-6 days
p1632
aVMale
p1633
aI8241
aF105096.2
aa(lp1634
VEST
p1635
aVEstonia
p1636
aI2000
aV55-59 years
p1637
aVMale
p1638
aI786
aF2415.9
aa(lp1639
VDZA
p1640
aVAlgeria
p1641
aI1990
aV50-54 years
p1642
aVBoth
p1643
aI4159
aF588.9
aa(lp1644
VGAB
p1645
aVGabon
p1646
aI2000
aV20-24 years
p1647
aVBoth
p1648
aI544
aF492.4
aa(lp1649
VGBR
p1650
aVUnited Kingdom
p1651
aI2000
aV0-6 days
p1652
aVBoth
p1653
aI1775
aF13348.6
aa(lp1654
VEGY
p1655
aVEgypt
p1656
aI1980
aV65-69 years
p1657
aVBoth
p1658
aI24899
aF3577.2
aa(lp1659
VEGY
p1660
aVEgypt
p1661
aI1980
aV25-29 years
p1662
aVMale
p1663
aI4681
aF298.7
aa(lp1664
VGEO
p1665
aVGeorgia
p1666
aI1980
aV70-74 years
p1667
aVMale
p1668
aI2581
aF5719.3
aa(lp1669
VFSM
p1670
aVMicronesia, Federated States of
p1671
aI1980
aV30-34 years
p1672
aVFemale
p1673
aI6
aF331.4
aa(lp1674
VFIN
p1675
aVFinland
p1676
aI2010
aV30-34 years
p1677
aVBoth
p1678
aI265
aF78.6
aa(lp1679
VECU
p1680
aVEcuador
p1681
aI1970
aV7-27 days
p1682
aVBoth
p1683
aI3269
aF23161.4
aa(lp1684
VGEO
p1685
aVGeorgia
p1686
aI1990
aV0-6 days
p1687
aVMale
p1688
aI827
aF93870.6
aa(lp1689
VFSM
p1690
aVMicronesia, Federated States of
p1691
aI1990
aV45-49 years
p1692
aVMale
p1693
aI22
aF1454.5
aa(lp1694
VFIN
p1695
aVFinland
p1696
aI2010
aVAll ages
p1697
aVBoth
p1698
aI50560
aF945.4
aa(lp1699
VDZA
p1700
aVAlgeria
p1701
aI2000
aV7-27 days
p1702
aVBoth
p1703
aI3199
aF8922.5
aa(lp1704
VERI
p1705
aVEritrea
p1706
aI2010
aV0-6 days
p1707
aVMale
p1708
aI2119
aF115548.8
aa(lp1709
VEGY
p1710
aVEgypt
p1711
aI1970
aV35-39 years
p1712
aVMale
p1713
aI5081
aF553.3
aa(lp1714
VGBR
p1715
aVUnited Kingdom
p1716
aI1970
aV10-14 years
p1717
aVMale
p1718
aI822
aF38.7
aa(lp1719
VGAB
p1720
aVGabon
p1721
aI1990
aV40-44 years
p1722
aVBoth
p1723
aI308
aF789.1
aa(lp1724
VFJI
p1725
aVFiji
p1726
aI1980
aV30-34 years
p1727
aVMale
p1728
aI96
aF447.5
aa(lp1729
VDOM
p1730
aVDominican Republic
p1731
aI1980
aV30-34 years
p1732
aVMale
p1733
aI261
aF164.1
aa(lp1734
VFRA
p1735
aVFrance
p1736
aI1990
aV25-29 years
p1737
aVBoth
p1738
aI4402
aF102.2
aa(lp1739
VERI
p1740
aVEritrea
p1741
aI1980
aV65-69 years
p1742
aVFemale
p1743
aI1016
aF5435.3
aa(lp1744
VESP
p1745
aVSpain
p1746
aI2000
aV70-74 years
p1747
aVBoth
p1748
aI42734
aF2381.1
aa(lp1749
VGEO
p1750
aVGeorgia
p1751
aI1970
aV50-54 years
p1752
aVFemale
p1753
aI596
aF584.7
aa(lp1754
VEGY
p1755
aVEgypt
p1756
aI1990
aV25-29 years
p1757
aVMale
p1758
aI5170
aF243.8
aa(lp1759
VETH
p1760
aVEthiopia
p1761
aI1980
aV1-4 years
p1762
aVMale
p1763
aI85997
aF3524.1
aa(lp1764
VERI
p1765
aVEritrea
p1766
aI2000
aV10-14 years
p1767
aVMale
p1768
aI2471
aF992.8
aa(lp1769
VFJI
p1770
aVFiji
p1771
aI1980
aV55-59 years
p1772
aVBoth
p1773
aI326
aF2132.6
aa(lp1774
VFIN
p1775
aVFinland
p1776
aI1970
aV20-24 years
p1777
aVMale
p1778
aI350
aF152.3
aa(lp1779
VEGY
p1780
aVEgypt
p1781
aI1990
aV7-27 days
p1782
aVFemale
p1783
aI8626
aF17216.9
aa(lp1784
VESP
p1785
aVSpain
p1786
aI1990
aV5-9 years
p1787
aVBoth
p1788
aI565
aF22.4
aa(lp1789
VGHA
p1790
aVGhana
p1791
aI1970
aV7-27 days
p1792
aVFemale
p1793
aI2123
aF19132.3
aa(lp1794
VDZA
p1795
aVAlgeria
p1796
aI1990
aV20-24 years
p1797
aVMale
p1798
aI1663
aF137.0
aa(lp1799
VFIN
p1800
aVFinland
p1801
aI2000
aV40-44 years
p1802
aVMale
p1803
aI600
aF307.5
aa(lp1804
VDOM
p1805
aVDominican Republic
p1806
aI1990
aVAll ages
p1807
aVFemale
p1808
aI16117
aF451.3
aa(lp1809
VDZA
p1810
aVAlgeria
p1811
aI2000
aV70-74 years
p1812
aVFemale
p1813
aI5931
aF3146.8
aa(lp1814
VGBR
p1815
aVUnited Kingdom
p1816
aI2010
aV70-74 years
p1817
aVFemale
p1818
aI23993
aF1833.0
aa(lp1819
VETH
p1820
aVEthiopia
p1821
aI1970
aV30-34 years
p1822
aVFemale
p1823
aI7846
aF854.3
aa(lp1824
VESP
p1825
aVSpain
p1826
aI1980
aV10-14 years
p1827
aVBoth
p1828
aI996
aF30.1
aa(lp1829
VERI
p1830
aVEritrea
p1831
aI1980
aV80+ years
p1832
aVBoth
p1833
aI2357
aF17720.1
aa(lp1834
VERI
p1835
aVEritrea
p1836
aI1980
aV28-364 days
p1837
aVBoth
p1838
aI5341
aF5805.2
aa(lp1839
VDZA
p1840
aVAlgeria
p1841
aI2000
aV20-24 years
p1842
aVFemale
p1843
aI1126
aF71.9
aa(lp1844
VFSM
p1845
aVMicronesia, Federated States of
p1846
aI1990
aV40-44 years
p1847
aVMale
p1848
aI18
aF1003.9
aa(lp1849
VFJI
p1850
aVFiji
p1851
aI2010
aV0-6 days
p1852
aVMale
p1853
aI123
aF67839.7
aa(lp1854
VGBR
p1855
aVUnited Kingdom
p1856
aI2010
aV75-79 years
p1857
aVFemale
p1858
aI36576
aF3297.8
aa(lp1859
VGEO
p1860
aVGeorgia
p1861
aI1970
aV40-44 years
p1862
aVMale
p1863
aI1111
aF624.4
aa(lp1864
VFSM
p1865
aVMicronesia, Federated States of
p1866
aI1970
aV70-74 years
p1867
aVFemale
p1868
aI19
aF6305.7
aa(lp1869
VESP
p1870
aVSpain
p1871
aI1980
aV15-19 years
p1872
aVFemale
p1873
aI521
aF32.9
aa(lp1874
VEST
p1875
aVEstonia
p1876
aI2010
aV80+ years
p1877
aVBoth
p1878
aI6100
aF10877.7
aa(lp1879
VGEO
p1880
aVGeorgia
p1881
aI2000
aV40-44 years
p1882
aVFemale
p1883
aI284
aF153.2
aa(lp1884
VFIN
p1885
aVFinland
p1886
aI1980
aV25-29 years
p1887
aVBoth
p1888
aI419
aF103.1
aa(lp1889
VFRA
p1890
aVFrance
p1891
aI1970
aV5-9 years
p1892
aVMale
p1893
aI943
aF43.3
aa(lp1894
VGBR
p1895
aVUnited Kingdom
p1896
aI2010
aV35-39 years
p1897
aVBoth
p1898
aI4096
aF97.2
aa(lp1899
VFJI
p1900
aVFiji
p1901
aI2010
aV5-9 years
p1902
aVFemale
p1903
aI17
aF42.6
aa(lp1904
VFIN
p1905
aVFinland
p1906
aI1990
aV35-39 years
p1907
aVFemale
p1908
aI191
aF95.9
aa(lp1909
VFSM
p1910
aVMicronesia, Federated States of
p1911
aI1980
aV50-54 years
p1912
aVMale
p1913
aI19
aF1987.5
aa(lp1914
VFRA
p1915
aVFrance
p1916
aI1990
aV5-9 years
p1917
aVMale
p1918
aI434
aF22.0
aa(lp1919
VECU
p1920
aVEcuador
p1921
aI2010
aV30-34 years
p1922
aVBoth
p1923
aI1931
aF173.6
aa(lp1924
VEGY
p1925
aVEgypt
p1926
aI2010
aV1-4 years
p1927
aVMale
p1928
aI5101
aF138.5
aa(lp1929
VFIN
p1930
aVFinland
p1931
aI1990
aV50-54 years
p1932
aVMale
p1933
aI1148
aF835.9
aa(lp1934
VEST
p1935
aVEstonia
p1936
aI1980
aV65-69 years
p1937
aVFemale
p1938
aI839
aF2085.0
aa(lp1939
VFJI
p1940
aVFiji
p1941
aI1980
aV5-9 years
p1942
aVFemale
p1943
aI23
aF60.8
aa(lp1944
VETH
p1945
aVEthiopia
p1946
aI1970
aV40-44 years
p1947
aVFemale
p1948
aI8144
aF1266.4
aa(lp1949
VDZA
p1950
aVAlgeria
p1951
aI1990
aV70-74 years
p1952
aVFemale
p1953
aI4726
aF3419.8
aa(lp1954
VFRA
p1955
aVFrance
p1956
aI2010
aV10-14 years
p1957
aVFemale
p1958
aI157
aF8.7
aa(lp1959
VGEO
p1960
aVGeorgia
p1961
aI1970
aV40-44 years
p1962
aVFemale
p1963
aI515
aF273.9
aa(lp1964
VEGY
p1965
aVEgypt
p1966
aI1970
aV15-19 years
p1967
aVMale
p1968
aI4729
aF242.2
aa(lp1969
VEST
p1970
aVEstonia
p1971
aI1990
aV30-34 years
p1972
aVFemale
p1973
aI55
aF90.5
aa(lp1974
VGAB
p1975
aVGabon
p1976
aI1970
aV80+ years
p1977
aVBoth
p1978
aI595
aF14515.1
aa(lp1979
VESP
p1980
aVSpain
p1981
aI2010
aV28-364 days
p1982
aVBoth
p1983
aI564
aF123.4
aa(lp1984
VESP
p1985
aVSpain
p1986
aI1990
aV1-4 years
p1987
aVMale
p1988
aI374
aF43.1
aa(lp1989
VGAB
p1990
aVGabon
p1991
aI1990
aV25-29 years
p1992
aVBoth
p1993
aI272
aF393.1
aa(lp1994
VDNK
p1995
aVDenmark
p1996
aI2010
aV40-44 years
p1997
aVBoth
p1998
aI612
aF150.0
aa(lp1999
VETH
p2000
aVEthiopia
p2001
aI1980
aV60-64 years
p2002
aVMale
p2003
aI15102
aF4967.9
aa(lp2004
VGHA
p2005
aVGhana
p2006
aI1970
aV7-27 days
p2007
aVMale
p2008
aI2984
aF25779.5
aa(lp2009
VEST
p2010
aVEstonia
p2011
aI1980
aV28-364 days
p2012
aVFemale
p2013
aI54
aF543.6
aa(lp2014
VEGY
p2015
aVEgypt
p2016
aI2010
aV50-54 years
p2017
aVBoth
p2018
aI29895
aF831.2
aa(lp2019
VERI
p2020
aVEritrea
p2021
aI2000
aV25-29 years
p2022
aVFemale
p2023
aI1932
aF1284.7
aa(lp2024
VFSM
p2025
aVMicronesia, Federated States of
p2026
aI2000
aVAll ages
p2027
aVBoth
p2028
aI785
aF724.3
aa(lp2029
VESP
p2030
aVSpain
p2031
aI2010
aV40-44 years
p2032
aVFemale
p2033
aI1647
aF92.6
aa(lp2034
VFSM
p2035
aVMicronesia, Federated States of
p2036
aI2000
aV7-27 days
p2037
aVMale
p2038
aI3
aF3299.5
aa(lp2039
VFIN
p2040
aVFinland
p2041
aI2000
aV25-29 years
p2042
aVBoth
p2043
aI236
aF77.2
aa(lp2044
VECU
p2045
aVEcuador
p2046
aI1970
aV5-9 years
p2047
aVFemale
p2048
aI1032
aF241.2
aa(lp2049
VGAB
p2050
aVGabon
p2051
aI1980
aV70-74 years
p2052
aVBoth
p2053
aI749
aF5838.8
aa(lp2054
VFIN
p2055
aVFinland
p2056
aI1980
aV80+ years
p2057
aVBoth
p2058
aI11473
aF13627.2
aa(lp2059
VFJI
p2060
aVFiji
p2061
aI1970
aV7-27 days
p2062
aVMale
p2063
aI52
aF10128.4
aa(lp2064
VGBR
p2065
aVUnited Kingdom
p2066
aI1980
aV5-9 years
p2067
aVBoth
p2068
aI1068
aF27.5
aa(lp2069
VEST
p2070
aVEstonia
p2071
aI1980
aV50-54 years
p2072
aVBoth
p2073
aI1015
aF1020.6
aa(lp2074
VGAB
p2075
aVGabon
p2076
aI1990
aV30-34 years
p2077
aVMale
p2078
aI183
aF585.8
aa(lp2079
VGEO
p2080
aVGeorgia
p2081
aI1970
aV65-69 years
p2082
aVMale
p2083
aI2341
aF4226.5
aa(lp2084
VGAB
p2085
aVGabon
p2086
aI1990
aV5-9 years
p2087
aVFemale
p2088
aI72
aF113.4
aa(lp2089
VEGY
p2090
aVEgypt
p2091
aI1980
aV5-9 years
p2092
aVFemale
p2093
aI4862
aF160.0
aa(lp2094
VEGY
p2095
aVEgypt
p2096
aI1970
aV5-9 years
p2097
aVBoth
p2098
aI12895
aF251.8
aa(lp2099
VGAB
p2100
aVGabon
p2101
aI2010
aV25-29 years
p2102
aVMale
p2103
aI482
aF759.5
aa(lp2104
VETH
p2105
aVEthiopia
p2106
aI2000
aV25-29 years
p2107
aVBoth
p2108
aI30136
aF641.7
aa(lp2109
VDNK
p2110
aVDenmark
p2111
aI2000
aVAll ages
p2112
aVFemale
p2113
aI30208
aF1119.9
aa(lp2114
VETH
p2115
aVEthiopia
p2116
aI1990
aV7-27 days
p2117
aVFemale
p2118
aI18855
aF29786.5
aa(lp2119
VETH
p2120
aVEthiopia
p2121
aI1990
aV60-64 years
p2122
aVFemale
p2123
aI18273
aF4057.8
aa(lp2124
VFSM
p2125
aVMicronesia, Federated States of
p2126
aI2010
aV45-49 years
p2127
aVBoth
p2128
aI49
aF1055.0
aa(lp2129
VFSM
p2130
aVMicronesia, Federated States of
p2131
aI2010
aV45-49 years
p2132
aVFemale
p2133
aI19
aF806.1
aa(lp2134
VFRA
p2135
aVFrance
p2136
aI1990
aV60-64 years
p2137
aVMale
p2138
aI23940
aF1753.3
aa(lp2139
VDZA
p2140
aVAlgeria
p2141
aI1980
aV25-29 years
p2142
aVBoth
p2143
aI3874
aF287.0
aa(lp2144
VFIN
p2145
aVFinland
p2146
aI1990
aV55-59 years
p2147
aVBoth
p2148
aI2256
aF888.8
aa(lp2149
VESP
p2150
aVSpain
p2151
aI1970
aV80+ years
p2152
aVBoth
p2153
aI78711
aF15152.9
aa(lp2154
VDOM
p2155
aVDominican Republic
p2156
aI1990
aV5-9 years
p2157
aVBoth
p2158
aI706
aF75.9
aa(lp2159
VDOM
p2160
aVDominican Republic
p2161
aI1980
aV10-14 years
p2162
aVMale
p2163
aI269
aF70.6
aa(lp2164
VFRA
p2165
aVFrance
p2166
aI2010
aV15-19 years
p2167
aVBoth
p2168
aI1294
aF34.5
aa(lp2169
VGAB
p2170
aVGabon
p2171
aI1970
aV55-59 years
p2172
aVMale
p2173
aI301
aF2765.9
aa(lp2174
VDZA
p2175
aVAlgeria
p2176
aI2000
aV25-29 years
p2177
aVMale
p2178
aI1988
aF145.4
aa(lp2179
VECU
p2180
aVEcuador
p2181
aI1970
aV1-4 years
p2182
aVMale
p2183
aI7038
aF1663.1
aa(lp2184
VFJI
p2185
aVFiji
p2186
aI1980
aV1-4 years
p2187
aVMale
p2188
aI133
aF334.8
aa(lp2189
VESP
p2190
aVSpain
p2191
aI2010
aV1-4 years
p2192
aVFemale
p2193
aI152
aF16.4
aa(lp2194
VGAB
p2195
aVGabon
p2196
aI1980
aV60-64 years
p2197
aVFemale
p2198
aI241
aF2128.1
aa(lp2199
VETH
p2200
aVEthiopia
p2201
aI1990
aV50-54 years
p2202
aVBoth
p2203
aI30929
aF2209.3
aa(lp2204
VGEO
p2205
aVGeorgia
p2206
aI1970
aV80+ years
p2207
aVBoth
p2208
aI11168
aF13729.0
aa(lp2209
VGEO
p2210
aVGeorgia
p2211
aI1990
aV55-59 years
p2212
aVFemale
p2213
aI1092
aF692.4
aa(lp2214
VFRA
p2215
aVFrance
p2216
aI2010
aV25-29 years
p2217
aVMale
p2218
aI1701
aF83.9
aa(lp2219
VECU
p2220
aVEcuador
p2221
aI1980
aV0-6 days
p2222
aVFemale
p2223
aI1158
aF42738.0
aa(lp2224
VFSM
p2225
aVMicronesia, Federated States of
p2226
aI1980
aV50-54 years
p2227
aVFemale
p2228
aI12
aF1205.2
aa(lp2229
VGHA
p2230
aVGhana
p2231
aI1970
aV70-74 years
p2232
aVMale
p2233
aI1805
aF5519.4
aa(lp2234
VDZA
p2235
aVAlgeria
p2236
aI1990
aV35-39 years
p2237
aVMale
p2238
aI1381
aF207.6
aa(lp2239
VDNK
p2240
aVDenmark
p2241
aI2000
aV1-4 years
p2242
aVFemale
p2243
aI29
aF22.5
aa(lp2244
VFIN
p2245
aVFinland
p2246
aI1990
aV10-14 years
p2247
aVBoth
p2248
aI63
aF19.5
aa(lp2249
VGBR
p2250
aVUnited Kingdom
p2251
aI1970
aV1-4 years
p2252
aVBoth
p2253
aI2956
aF81.5
aa(lp2254
VFRA
p2255
aVFrance
p2256
aI2010
aV65-69 years
p2257
aVFemale
p2258
aI9953
aF741.3
aa(lp2259
VDZA
p2260
aVAlgeria
p2261
aI2000
aV60-64 years
p2262
aVFemale
p2263
aI3833
aF1152.4
aa(lp2264
VGAB
p2265
aVGabon
p2266
aI1980
aV5-9 years
p2267
aVMale
p2268
aI73
aF174.6
aa(lp2269
VDZA
p2270
aVAlgeria
p2271
aI2000
aV50-54 years
p2272
aVBoth
p2273
aI4857
aF556.2
aa(lp2274
VFSM
p2275
aVMicronesia, Federated States of
p2276
aI2010
aV55-59 years
p2277
aVFemale
p2278
aI32
aF1695.6
aa(lp2279
VFSM
p2280
aVMicronesia, Federated States of
p2281
aI2010
aV65-69 years
p2282
aVBoth
p2283
aI64
aF4521.5
aa(lp2284
VFSM
p2285
aVMicronesia, Federated States of
p2286
aI1970
aV20-24 years
p2287
aVMale
p2288
aI7
aF300.7
aa(lp2289
VGBR
p2290
aVUnited Kingdom
p2291
aI2010
aV10-14 years
p2292
aVBoth
p2293
aI432
aF12.1
aa(lp2294
VESP
p2295
aVSpain
p2296
aI1970
aV65-69 years
p2297
aVFemale
p2298
aI13362
aF1878.8
aa(lp2299
VERI
p2300
aVEritrea
p2301
aI2010
aV28-364 days
p2302
aVMale
p2303
aI1996
aF2344.0
aa(lp2304
VGHA
p2305
aVGhana
p2306
aI1970
aV1-4 years
p2307
aVFemale
p2308
aI12106
aF1851.1
aa(lp2309
VGAB
p2310
aVGabon
p2311
aI1970
aV40-44 years
p2312
aVBoth
p2313
aI269
aF874.2
aa(lp2314
VDZA
p2315
aVAlgeria
p2316
aI2000
aV70-74 years
p2317
aVFemale
p2318
aI5931
aF3146.8
aa(lp2319
VEST
p2320
aVEstonia
p2321
aI1980
aVAll ages
p2322
aVBoth
p2323
aI18415
aF1248.2
aa(lp2324
VDNK
p2325
aVDenmark
p2326
aI2010
aV75-79 years
p2327
aVFemale
p2328
aI3333
aF3716.9
aa(lp2329
VEST
p2330
aVEstonia
p2331
aI2000
aV35-39 years
p2332
aVMale
p2333
aI255
aF547.7
aa(lp2334
VGHA
p2335
aVGhana
p2336
aI1970
aV30-34 years
p2337
aVFemale
p2338
aI1073
aF408.1
aa(lp2339
VETH
p2340
aVEthiopia
p2341
aI2010
aV25-29 years
p2342
aVMale
p2343
aI12771
aF405.0
aa(lp2344
VFSM
p2345
aVMicronesia, Federated States of
p2346
aI2000
aV25-29 years
p2347
aVBoth
p2348
aI19
aF261.7
aa(lp2349
VETH
p2350
aVEthiopia
p2351
aI2000
aV5-9 years
p2352
aVBoth
p2353
aI19150
aF190.0
aa(lp2354
VDOM
p2355
aVDominican Republic
p2356
aI1970
aV40-44 years
p2357
aVBoth
p2358
aI572
aF292.4
aa(lp2359
VGAB
p2360
aVGabon
p2361
aI1990
aV20-24 years
p2362
aVMale
p2363
aI148
aF408.3
aa(lp2364
VFSM
p2365
aVMicronesia, Federated States of
p2366
aI2010
aV30-34 years
p2367
aVMale
p2368
aI13
aF395.6
aa(lp2369
VFRA
p2370
aVFrance
p2371
aI1980
aV55-59 years
p2372
aVFemale
p2373
aI8863
aF553.5
aa(lp2374
VEST
p2375
aVEstonia
p2376
aI2000
aV25-29 years
p2377
aVMale
p2378
aI129
aF273.8
aa(lp2379
VFIN
p2380
aVFinland
p2381
aI2000
aV20-24 years
p2382
aVMale
p2383
aI181
aF108.2
aa(lp2384
VEGY
p2385
aVEgypt
p2386
aI1970
aV75-79 years
p2387
aVFemale
p2388
aI7804
aF7439.0
aa(lp2389
VFRA
p2390
aVFrance
p2391
aI1980
aV15-19 years
p2392
aVMale
p2393
aI2765
aF125.2
aa(lp2394
VESP
p2395
aVSpain
p2396
aI1970
aV1-4 years
p2397
aVMale
p2398
aI1809
aF139.4
aa(lp2399
VECU
p2400
aVEcuador
p2401
aI1990
aV28-364 days
p2402
aVMale
p2403
aI3307
aF2406.2
aa(lp2404
VFSM
p2405
aVMicronesia, Federated States of
p2406
aI1980
aV0-6 days
p2407
aVFemale
p2408
aI29
aF109698.0
aa(lp2409
VDOM
p2410
aVDominican Republic
p2411
aI2010
aV40-44 years
p2412
aVFemale
p2413
aI560
aF188.0
aa(lp2414
VDOM
p2415
aVDominican Republic
p2416
aI1970
aV5-9 years
p2417
aVBoth
p2418
aI975
aF135.1
aa(lp2419
VDOM
p2420
aVDominican Republic
p2421
aI1970
aV40-44 years
p2422
aVBoth
p2423
aI572
aF292.4
aa(lp2424
VETH
p2425
aVEthiopia
p2426
aI1990
aV30-34 years
p2427
aVMale
p2428
aI11678
aF828.7
aa(lp2429
VEST
p2430
aVEstonia
p2431
aI1970
aV25-29 years
p2432
aVMale
p2433
aI143
aF302.9
aa(lp2434
VECU
p2435
aVEcuador
p2436
aI2010
aV55-59 years
p2437
aVBoth
p2438
aI3572
aF672.8
aa(lp2439
VETH
p2440
aVEthiopia
p2441
aI2000
aV40-44 years
p2442
aVBoth
p2443
aI28310
aF1074.1
aa(lp2444
VFJI
p2445
aVFiji
p2446
aI1990
aV0-6 days
p2447
aVFemale
p2448
aI113
aF57467.1
aa(lp2449
VFIN
p2450
aVFinland
p2451
aI2010
aV1-4 years
p2452
aVBoth
p2453
aI34
aF14.5
aa(lp2454
VFIN
p2455
aVFinland
p2456
aI2010
aV70-74 years
p2457
aVMale
p2458
aI2861
aF2830.9
aa(lp2459
VDZA
p2460
aVAlgeria
p2461
aI1970
aV15-19 years
p2462
aVBoth
p2463
aI2234
aF160.1
aa(lp2464
VECU
p2465
aVEcuador
p2466
aI1990
aV28-364 days
p2467
aVMale
p2468
aI3307
aF2406.2
aa(lp2469
VDZA
p2470
aVAlgeria
p2471
aI1990
aV65-69 years
p2472
aVMale
p2473
aI4361
aF2660.9
aa(lp2474
VFSM
p2475
aVMicronesia, Federated States of
p2476
aI2000
aV45-49 years
p2477
aVFemale
p2478
aI20
aF902.5
aa(lp2479
VECU
p2480
aVEcuador
p2481
aI2000
aV35-39 years
p2482
aVMale
p2483
aI1238
aF318.3
aa(lp2484
VGAB
p2485
aVGabon
p2486
aI1990
aVAll ages
p2487
aVMale
p2488
aI6017
aF1307.6
aa(lp2489
VEST
p2490
aVEstonia
p2491
aI1970
aV5-9 years
p2492
aVBoth
p2493
aI67
aF66.4
aa(lp2494
VGAB
p2495
aVGabon
p2496
aI2000
aV40-44 years
p2497
aVFemale
p2498
aI225
aF802.6
aa(lp2499
VEGY
p2500
aVEgypt
p2501
aI1980
aV5-9 years
p2502
aVBoth
p2503
aI10910
aF176.2
aa(lp2504
VFSM
p2505
aVMicronesia, Federated States of
p2506
aI1990
aV35-39 years
p2507
aVMale
p2508
aI19
aF709.3
aa(lp2509
VETH
p2510
aVEthiopia
p2511
aI2010
aV80+ years
p2512
aVBoth
p2513
aI45683
aF14421.8
aa(lp2514
VEGY
p2515
aVEgypt
p2516
aI1980
aV30-34 years
p2517
aVFemale
p2518
aI3153
aF227.0
aa(lp2519
VFJI
p2520
aVFiji
p2521
aI1980
aV75-79 years
p2522
aVFemale
p2523
aI120
aF8350.5
aa(lp2524
VGEO
p2525
aVGeorgia
p2526
aI1980
aV55-59 years
p2527
aVBoth
p2528
aI2510
aF1075.3
aa(lp2529
VDOM
p2530
aVDominican Republic
p2531
aI2000
aV45-49 years
p2532
aVFemale
p2533
aI531
aF283.1
aa(lp2534
VEGY
p2535
aVEgypt
p2536
aI1970
aV45-49 years
p2537
aVMale
p2538
aI7667
aF1100.6
aa(lp2539
VFSM
p2540
aVMicronesia, Federated States of
p2541
aI2010
aV28-364 days
p2542
aVFemale
p2543
aI5
aF402.6
aa(lp2544
VECU
p2545
aVEcuador
p2546
aI1980
aV60-64 years
p2547
aVBoth
p2548
aI2230
aF1445.7
aa(lp2549
VEST
p2550
aVEstonia
p2551
aI1990
aV1-4 years
p2552
aVFemale
p2553
aI40
aF88.9
aa(lp2554
VGAB
p2555
aVGabon
p2556
aI2010
aV80+ years
p2557
aVBoth
p2558
aI1715
aF14274.5
aa(lp2559
VFSM
p2560
aVMicronesia, Federated States of
p2561
aI1970
aVAll ages
p2562
aVFemale
p2563
aI312
aF1057.3
aa(lp2564
VECU
p2565
aVEcuador
p2566
aI2010
aV80+ years
p2567
aVMale
p2568
aI8461
aF10609.4
aa(lp2569
VDOM
p2570
aVDominican Republic
p2571
aI2000
aV10-14 years
p2572
aVBoth
p2573
aI344
aF35.8
aa(lp2574
VGBR
p2575
aVUnited Kingdom
p2576
aI2010
aV75-79 years
p2577
aVFemale
p2578
aI36576
aF3297.8
aa(lp2579
VDZA
p2580
aVAlgeria
p2581
aI1970
aV55-59 years
p2582
aVMale
p2583
aI2952
aF1868.0
aa(lp2584
VDNK
p2585
aVDenmark
p2586
aI2010
aVAll ages
p2587
aVMale
p2588
aI27671
aF1012.2
aa(lp2589
VDZA
p2590
aVAlgeria
p2591
aI2000
aV35-39 years
p2592
aVBoth
p2593
aI3477
aF177.8
aa(lp2594
VESP
p2595
aVSpain
p2596
aI2010
aV70-74 years
p2597
aVMale
p2598
aI20936
aF2636.1
aa(lp2599
VDZA
p2600
aVAlgeria
p2601
aI2000
aVAll ages
p2602
aVBoth
p2603
aI131536
aF429.1
aa(lp2604
VGAB
p2605
aVGabon
p2606
aI1980
aV45-49 years
p2607
aVMale
p2608
aI160
aF1252.3
aa(lp2609
VFIN
p2610
aVFinland
p2611
aI1980
aV55-59 years
p2612
aVMale
p2613
aI1957
aF1702.8
aa(lp2614
VGBR
p2615
aVUnited Kingdom
p2616
aI1990
aV75-79 years
p2617
aVBoth
p2618
aI110970
aF5917.9
aa(lp2619
VFSM
p2620
aVMicronesia, Federated States of
p2621
aI2010
aV65-69 years
p2622
aVFemale
p2623
aI30
aF3815.5
aa(lp2624
VETH
p2625
aVEthiopia
p2626
aI1980
aV80+ years
p2627
aVBoth
p2628
aI15647
aF18438.4
aa(lp2629
VGBR
p2630
aVUnited Kingdom
p2631
aI2000
aV7-27 days
p2632
aVFemale
p2633
aI247
aF1271.0
aa(lp2634
VFJI
p2635
aVFiji
p2636
aI2010
aV75-79 years
p2637
aVMale
p2638
aI269
aF9158.0
aa(lp2639
VDOM
p2640
aVDominican Republic
p2641
aI1970
aV25-29 years
p2642
aVBoth
p2643
aI410
aF149.4
aa(lp2644
VFSM
p2645
aVMicronesia, Federated States of
p2646
aI2000
aV45-49 years
p2647
aVBoth
p2648
aI54
aF1140.0
aa(lp2649
VECU
p2650
aVEcuador
p2651
aI2000
aV40-44 years
p2652
aVBoth
p2653
aI1926
aF291.7
aa(lp2654
VGEO
p2655
aVGeorgia
p2656
aI1980
aV30-34 years
p2657
aVBoth
p2658
aI623
aF200.5
aa(lp2659
VGAB
p2660
aVGabon
p2661
aI1980
aV60-64 years
p2662
aVBoth
p2663
aI598
aF2802.5
aa(lp2664
VDZA
p2665
aVAlgeria
p2666
aI1980
aV60-64 years
p2667
aVBoth
p2668
aI9496
aF2683.3
aa(lp2669
VGHA
p2670
aVGhana
p2671
aI1970
aV60-64 years
p2672
aVFemale
p2673
aI1857
aF2399.5
aa(lp2674
VFRA
p2675
aVFrance
p2676
aI1970
aV70-74 years
p2677
aVFemale
p2678
aI32655
aF2988.7
aa(lp2679
VEST
p2680
aVEstonia
p2681
aI2010
aV75-79 years
p2682
aVMale
p2683
aI1076
aF7137.8
aa(lp2684
VEST
p2685
aVEstonia
p2686
aI1990
aV7-27 days
p2687
aVFemale
p2688
aI18
aF3088.9
aa(lp2689
VGEO
p2690
aVGeorgia
p2691
aI1970
aV55-59 years
p2692
aVBoth
p2693
aI2660
aF1239.0
aa(lp2694
VECU
p2695
aVEcuador
p2696
aI1970
aV5-9 years
p2697
aVBoth
p2698
aI2194
aF253.2
aa(lp2699
VETH
p2700
aVEthiopia
p2701
aI1970
aV50-54 years
p2702
aVMale
p2703
aI10938
aF2604.0
aa(lp2704
VDOM
p2705
aVDominican Republic
p2706
aI1980
aV7-27 days
p2707
aVFemale
p2708
aI892
aF16445.7
aa(lp2709
VFSM
p2710
aVMicronesia, Federated States of
p2711
aI2000
aV60-64 years
p2712
aVFemale
p2713
aI23
aF2798.4
aa(lp2714
VEST
p2715
aVEstonia
p2716
aI1980
aV60-64 years
p2717
aVBoth
p2718
aI980
aF1882.0
aa(lp2719
VFIN
p2720
aVFinland
p2721
aI1970
aV40-44 years
p2722
aVFemale
p2723
aI291
aF196.5
aa(lp2724
VFRA
p2725
aVFrance
p2726
aI2000
aV80+ years
p2727
aVMale
p2728
aI91046
aF13252.0
aa(lp2729
VGHA
p2730
aVGhana
p2731
aI1970
aV75-79 years
p2732
aVBoth
p2733
aI3096
aF8056.2
aa(lp2734
VFIN
p2735
aVFinland
p2736
aI2000
aV35-39 years
p2737
aVMale
p2738
aI371
aF191.9
aa(lp2739
VESP
p2740
aVSpain
p2741
aI1970
aV55-59 years
p2742
aVBoth
p2743
aI15652
aF949.6
aa(lp2744
VFRA
p2745
aVFrance
p2746
aI1980
aV50-54 years
p2747
aVBoth
p2748
aI21639
aF680.9
aa(lp2749
VFJI
p2750
aVFiji
p2751
aI1990
aV40-44 years
p2752
aVBoth
p2753
aI231
aF648.8
aa(lp2754
VGEO
p2755
aVGeorgia
p2756
aI2000
aV28-364 days
p2757
aVBoth
p2758
aI646
aF1229.0
aa(lp2759
VECU
p2760
aVEcuador
p2761
aI1980
aV30-34 years
p2762
aVMale
p2763
aI772
aF330.7
aa(lp2764
VERI
p2765
aVEritrea
p2766
aI2000
aV15-19 years
p2767
aVFemale
p2768
aI1712
aF774.7
aa(lp2769
VFRA
p2770
aVFrance
p2771
aI1970
aV28-364 days
p2772
aVBoth
p2773
aI4649
aF599.0
aa(lp2774
VEST
p2775
aVEstonia
p2776
aI2010
aV70-74 years
p2777
aVBoth
p2778
aI1824
aF2852.3
aa(lp2779
VFIN
p2780
aVFinland
p2781
aI1980
aV60-64 years
p2782
aVMale
p2783
aI2256
aF2587.1
aa(lp2784
VGHA
p2785
aVGhana
p2786
aI1970
aV55-59 years
p2787
aVFemale
p2788
aI1468
aF1471.2
aa(lp2789
VETH
p2790
aVEthiopia
p2791
aI2010
aV60-64 years
p2792
aVBoth
p2793
aI43437
aF2742.7
aa(lp2794
VEGY
p2795
aVEgypt
p2796
aI1970
aV75-79 years
p2797
aVBoth
p2798
aI16767
aF8843.7
aa(lp2799
VFIN
p2800
aVFinland
p2801
aI1990
aV10-14 years
p2802
aVFemale
p2803
aI22
aF13.7
aa(lp2804
VFSM
p2805
aVMicronesia, Federated States of
p2806
aI1970
aV0-6 days
p2807
aVFemale
p2808
aI27
aF121578.1
aa(lp2809
VECU
p2810
aVEcuador
p2811
aI1990
aV10-14 years
p2812
aVMale
p2813
aI494
aF78.3
aa(lp2814
VESP
p2815
aVSpain
p2816
aI1970
aV35-39 years
p2817
aVFemale
p2818
aI1548
aF127.8
aa(lp2819
VFIN
p2820
aVFinland
p2821
aI2000
aV50-54 years
p2822
aVBoth
p2823
aI2085
aF489.6
aa(lp2824
VEST
p2825
aVEstonia
p2826
aI2000
aV75-79 years
p2827
aVBoth
p2828
aI2528
aF6360.2
aa(lp2829
VECU
p2830
aVEcuador
p2831
aI1970
aV7-27 days
p2832
aVMale
p2833
aI1888
aF26154.7
aa(lp2834
VFSM
p2835
aVMicronesia, Federated States of
p2836
aI1970
aV75-79 years
p2837
aVMale
p2838
aI18
aF11060.5
aa(lp2839
VESP
p2840
aVSpain
p2841
aI1990
aV10-14 years
p2842
aVFemale
p2843
aI283
aF18.4
aa(lp2844
VEST
p2845
aVEstonia
p2846
aI1970
aV10-14 years
p2847
aVMale
p2848
aI33
aF63.4
aa(lp2849
VEGY
p2850
aVEgypt
p2851
aI2000
aV45-49 years
p2852
aVBoth
p2853
aI17213
aF556.5
aa(lp2854
VDOM
p2855
aVDominican Republic
p2856
aI2010
aV0-6 days
p2857
aVBoth
p2858
aI3054
aF74128.2
aa(lp2859
VERI
p2860
aVEritrea
p2861
aI1980
aV55-59 years
p2862
aVFemale
p2863
aI718
aF2279.0
aa(lp2864
VFSM
p2865
aVMicronesia, Federated States of
p2866
aI1970
aV35-39 years
p2867
aVBoth
p2868
aI16
aF552.4
aa(lp2869
VFSM
p2870
aVMicronesia, Federated States of
p2871
aI2000
aV60-64 years
p2872
aVFemale
p2873
aI23
aF2798.4
aa(lp2874
VFJI
p2875
aVFiji
p2876
aI1970
aV30-34 years
p2877
aVBoth
p2878
aI98
aF306.2
aa(lp2879
VECU
p2880
aVEcuador
p2881
aI1990
aV70-74 years
p2882
aVFemale
p2883
aI1524
aF2442.4
aa(lp2884
VDOM
p2885
aVDominican Republic
p2886
aI1990
aV35-39 years
p2887
aVMale
p2888
aI449
aF222.4
aa(lp2889
VGBR
p2890
aVUnited Kingdom
p2891
aI1970
aV80+ years
p2892
aVBoth
p2893
aI186505
aF14859.6
aa(lp2894
VGAB
p2895
aVGabon
p2896
aI1970
aV20-24 years
p2897
aVMale
p2898
aI86
aF448.2
aa(lp2899
VDZA
p2900
aVAlgeria
p2901
aI1980
aV30-34 years
p2902
aVBoth
p2903
aI3217
aF337.4
aa(lp2904
VETH
p2905
aVEthiopia
p2906
aI1990
aV5-9 years
p2907
aVMale
p2908
aI10346
aF297.3
aa(lp2909
VGEO
p2910
aVGeorgia
p2911
aI2010
aV80+ years
p2912
aVMale
p2913
aI5939
aF13942.5
aa(lp2914
VESP
p2915
aVSpain
p2916
aI1990
aV28-364 days
p2917
aVBoth
p2918
aI1131
aF309.0
aa(lp2919
VDNK
p2920
aVDenmark
p2921
aI2010
aV10-14 years
p2922
aVFemale
p2923
aI13
aF7.8
aa(lp2924
VETH
p2925
aVEthiopia
p2926
aI2010
aVAll ages
p2927
aVMale
p2928
aI369450
aF892.3
aa(lp2929
VFJI
p2930
aVFiji
p2931
aI2000
aV45-49 years
p2932
aVMale
p2933
aI213
aF1109.1
aa(lp2934
VGEO
p2935
aVGeorgia
p2936
aI1970
aV60-64 years
p2937
aVFemale
p2938
aI1532
aF1395.6
aa(lp2939
VDNK
p2940
aVDenmark
p2941
aI2000
aV70-74 years
p2942
aVFemale
p2943
aI2887
aF2718.3
aa(lp2944
VDOM
p2945
aVDominican Republic
p2946
aI1980
aV70-74 years
p2947
aVBoth
p2948
aI1979
aF3828.0
aa(lp2949
VGAB
p2950
aVGabon
p2951
aI1970
aV20-24 years
p2952
aVBoth
p2953
aI145
aF374.3
aa(lp2954
VFSM
p2955
aVMicronesia, Federated States of
p2956
aI2010
aV80+ years
p2957
aVMale
p2958
aI54
aF19394.5
aa(lp2959
VETH
p2960
aVEthiopia
p2961
aI2010
aV7-27 days
p2962
aVFemale
p2963
aI8161
aF11281.5
aa(lp2964
VDNK
p2965
aVDenmark
p2966
aI2000
aVAll ages
p2967
aVBoth
p2968
aI58588
aF1098.5
aa(lp2969
VETH
p2970
aVEthiopia
p2971
aI1980
aV10-14 years
p2972
aVFemale
p2973
aI5524
aF255.0
aa(lp2974
VERI
p2975
aVEritrea
p2976
aI1990
aV55-59 years
p2977
aVFemale
p2978
aI745
aF2123.1
aa(lp2979
VECU
p2980
aVEcuador
p2981
aI1970
aV60-64 years
p2982
aVFemale
p2983
aI937
aF1452.1
aa(lp2984
VGAB
p2985
aVGabon
p2986
aI2000
aV28-364 days
p2987
aVBoth
p2988
aI1035
aF3030.9
aa(lp2989
VEST
p2990
aVEstonia
p2991
aI1990
aV10-14 years
p2992
aVBoth
p2993
aI55
aF49.0
aa(lp2994
VECU
p2995
aVEcuador
p2996
aI2010
aV15-19 years
p2997
aVMale
p2998
aI822
aF117.2
aa(lp2999
VGAB
p3000
aVGabon
p3001
aI1970
aV15-19 years
p3002
aVMale
p3003
aI64
aF278.7
aa(lp3004
VEST
p3005
aVEstonia
p3006
aI2000
aV75-79 years
p3007
aVMale
p3008
aI947
aF8863.8
aa(lp3009
VFJI
p3010
aVFiji
p3011
aI2010
aV70-74 years
p3012
aVMale
p3013
aI344
aF6303.6
aa(lp3014
VEST
p3015
aVEstonia
p3016
aI1980
aV80+ years
p3017
aVMale
p3018
aI1332
aF18583.6
aa(lp3019
VDOM
p3020
aVDominican Republic
p3021
aI1970
aV1-4 years
p3022
aVFemale
p3023
aI2676
aF827.8
aa(lp3024
VGHA
p3025
aVGhana
p3026
aI1970
aV80+ years
p3027
aVMale
p3028
aI1318
aF13460.7
aa(lp3029
VDOM
p3030
aVDominican Republic
p3031
aI2000
aV7-27 days
p3032
aVFemale
p3033
aI386
aF6516.1
aa(lp3034
VFSM
p3035
aVMicronesia, Federated States of
p3036
aI2000
aV60-64 years
p3037
aVFemale
p3038
aI23
aF2798.4
aa(lp3039
VETH
p3040
aVEthiopia
p3041
aI1980
aVAll ages
p3042
aVBoth
p3043
aI723236
aF2039.2
aa(lp3044
VECU
p3045
aVEcuador
p3046
aI1990
aV70-74 years
p3047
aVFemale
p3048
aI1524
aF2442.4
aa(lp3049
VFRA
p3050
aVFrance
p3051
aI1970
aV15-19 years
p3052
aVBoth
p3053
aI3775
aF90.9
aa(lp3054
VESP
p3055
aVSpain
p3056
aI1970
aV45-49 years
p3057
aVBoth
p3058
aI8497
aF401.8
aa(lp3059
VERI
p3060
aVEritrea
p3061
aI2000
aV20-24 years
p3062
aVFemale
p3063
aI2242
aF1067.6
aa(lp3064
VFSM
p3065
aVMicronesia, Federated States of
p3066
aI1970
aV40-44 years
p3067
aVBoth
p3068
aI19
aF742.5
aa(lp3069
VGBR
p3070
aVUnited Kingdom
p3071
aI2010
aV20-24 years
p3072
aVMale
p3073
aI1466
aF67.4
aa(lp3074
VFSM
p3075
aVMicronesia, Federated States of
p3076
aI1990
aV60-64 years
p3077
aVMale
p3078
aI36
aF4340.9
aa(lp3079
VFIN
p3080
aVFinland
p3081
aI1990
aV0-6 days
p3082
aVFemale
p3083
aI89
aF14807.6
aa(lp3084
VGHA
p3085
aVGhana
p3086
aI1970
aV75-79 years
p3087
aVFemale
p3088
aI1684
aF8067.9
aa(lp3089
VFSM
p3090
aVMicronesia, Federated States of
p3091
aI1970
aV35-39 years
p3092
aVBoth
p3093
aI16
aF552.4
aa(lp3094
VGBR
p3095
aVUnited Kingdom
p3096
aI1980
aVAll ages
p3097
aVFemale
p3098
aI332523
aF1150.3
aa(lp3099
VFRA
p3100
aVFrance
p3101
aI2010
aV10-14 years
p3102
aVBoth
p3103
aI406
aF10.9
aa(lp3104
VDNK
p3105
aVDenmark
p3106
aI2000
aV15-19 years
p3107
aVFemale
p3108
aI34
aF24.7
aa(lp3109
VEGY
p3110
aVEgypt
p3111
aI1980
aV10-14 years
p3112
aVFemale
p3113
aI2280
aF82.9
aa(lp3114
VETH
p3115
aVEthiopia
p3116
aI1980
aV25-29 years
p3117
aVBoth
p3118
aI17981
aF708.9
aa(lp3119
VETH
p3120
aVEthiopia
p3121
aI1970
aV80+ years
p3122
aVFemale
p3123
aI7981
aF18587.7
aa(lp3124
VGBR
p3125
aVUnited Kingdom
p3126
aI1970
aV80+ years
p3127
aVBoth
p3128
aI186505
aF14859.6
aa(lp3129
VESP
p3130
aVSpain
p3131
aI1980
aV28-364 days
p3132
aVMale
p3133
aI1229
aF444.4
aa(lp3134
VDOM
p3135
aVDominican Republic
p3136
aI1980
aV15-19 years
p3137
aVFemale
p3138
aI214
aF62.8
aa(lp3139
VGEO
p3140
aVGeorgia
p3141
aI2010
aV40-44 years
p3142
aVFemale
p3143
aI236
aF159.7
aa(lp3144
VETH
p3145
aVEthiopia
p3146
aI1980
aV20-24 years
p3147
aVMale
p3148
aI8690
aF585.3
aa(lp3149
VFIN
p3150
aVFinland
p3151
aI2010
aV30-34 years
p3152
aVBoth
p3153
aI265
aF78.6
aa(lp3154
VFSM
p3155
aVMicronesia, Federated States of
p3156
aI1980
aV7-27 days
p3157
aVFemale
p3158
aI13
aF16957.3
aa(lp3159
VGBR
p3160
aVUnited Kingdom
p3161
aI2010
aV1-4 years
p3162
aVFemale
p3163
aI285
aF20.1
aa(lp3164
VDNK
p3165
aVDenmark
p3166
aI2010
aV15-19 years
p3167
aVMale
p3168
aI80
aF44.4
aa(lp3169
VGEO
p3170
aVGeorgia
p3171
aI2010
aV10-14 years
p3172
aVBoth
p3173
aI83
aF35.2
aa(lp3174
VFJI
p3175
aVFiji
p3176
aI2010
aV20-24 years
p3177
aVMale
p3178
aI82
aF208.1
aa(lp3179
VDZA
p3180
aVAlgeria
p3181
aI2000
aV10-14 years
p3182
aVBoth
p3183
aI1646
aF43.3
aa(lp3184
VGHA
p3185
aVGhana
p3186
aI1990
aV0-6 days
p3187
aVFemale
p3188
aI6816
aF127705.3
aa(lp3189
VERI
p3190
aVEritrea
p3191
aI1980
aV30-34 years
p3192
aVMale
p3193
aI518
aF721.7
aa(lp3194
VGEO
p3195
aVGeorgia
p3196
aI1970
aV7-27 days
p3197
aVMale
p3198
aI509
aF19796.0
aa(lp3199
VGAB
p3200
aVGabon
p3201
aI2000
aV35-39 years
p3202
aVMale
p3203
aI424
aF1255.6
aa(lp3204
VDNK
p3205
aVDenmark
p3206
aI2010
aV0-6 days
p3207
aVBoth
p3208
aI109
aF8884.2
aa(lp3209
VERI
p3210
aVEritrea
p3211
aI1990
aV40-44 years
p3212
aVBoth
p3213
aI1435
aF1037.8
aa(lp3214
VFRA
p3215
aVFrance
p3216
aI1970
aV60-64 years
p3217
aVBoth
p3218
aI44059
aF1668.8
aa(lp3219
VETH
p3220
aVEthiopia
p3221
aI2000
aV7-27 days
p3222
aVFemale
p3223
aI15173
aF20313.7
aa(lp3224
VDZA
p3225
aVAlgeria
p3226
aI1990
aVAll ages
p3227
aVBoth
p3228
aI128583
aF506.7
aa(lp3229
VDOM
p3230
aVDominican Republic
p3231
aI2000
aV25-29 years
p3232
aVMale
p3233
aI866
aF247.9
aa(lp3234
VGAB
p3235
aVGabon
p3236
aI1980
aV25-29 years
p3237
aVMale
p3238
aI119
aF444.0
aa(lp3239
VFSM
p3240
aVMicronesia, Federated States of
p3241
aI2010
aV30-34 years
p3242
aVFemale
p3243
aI7
aF229.9
aa(lp3244
VDOM
p3245
aVDominican Republic
p3246
aI2000
aVAll ages
p3247
aVMale
p3248
aI26634
aF615.1
aa(lp3249
VDNK
p3250
aVDenmark
p3251
aI2010
aVAll ages
p3252
aVMale
p3253
aI27671
aF1012.2
aa(lp3254
VFRA
p3255
aVFrance
p3256
aI1990
aVAll ages
p3257
aVMale
p3258
aI267997
aF970.8
aa(lp3259
VEGY
p3260
aVEgypt
p3261
aI2010
aV1-4 years
p3262
aVMale
p3263
aI5101
aF138.5
aa(lp3264
VFIN
p3265
aVFinland
p3266
aI1970
aV50-54 years
p3267
aVMale
p3268
aI1437
aF1365.2
aa(lp3269
VECU
p3270
aVEcuador
p3271
aI1990
aV10-14 years
p3272
aVMale
p3273
aI494
aF78.3
aa(lp3274
VDZA
p3275
aVAlgeria
p3276
aI2000
aV65-69 years
p3277
aVFemale
p3278
aI5083
aF1856.2
aa(lp3279
VERI
p3280
aVEritrea
p3281
aI2010
aV0-6 days
p3282
aVBoth
p3283
aI3408
aF94099.8
aa(lp3284
VFSM
p3285
aVMicronesia, Federated States of
p3286
aI1970
aV80+ years
p3287
aVMale
p3288
aI19
aF18074.5
aa(lp3289
VDZA
p3290
aVAlgeria
p3291
aI2010
aV55-59 years
p3292
aVBoth
p3293
aI8082
aF683.2
aa(lp3294
VDNK
p3295
aVDenmark
p3296
aI2010
aV5-9 years
p3297
aVMale
p3298
aI15
aF9.1
aa(lp3299
VEGY
p3300
aVEgypt
p3301
aI1980
aV65-69 years
p3302
aVMale
p3303
aI14490
aF4501.4
aa(lp3304
VDZA
p3305
aVAlgeria
p3306
aI2000
aV28-364 days
p3307
aVBoth
p3308
aI9397
aF1647.6
aa(lp3309
VEST
p3310
aVEstonia
p3311
aI1980
aV45-49 years
p3312
aVMale
p3313
aI521
aF1112.8
aa(lp3314
VGHA
p3315
aVGhana
p3316
aI1990
aV10-14 years
p3317
aVBoth
p3318
aI2002
aF107.5
aa(lp3319
VDZA
p3320
aVAlgeria
p3321
aI1980
aV50-54 years
p3322
aVFemale
p3323
aI2782
aF1014.3
aa(lp3324
VDZA
p3325
aVAlgeria
p3326
aI1990
aV28-364 days
p3327
aVFemale
p3328
aI7662
aF2161.0
aa(lp3329
VFJI
p3330
aVFiji
p3331
aI1970
aV80+ years
p3332
aVFemale
p3333
aI67
aF13135.3
aa(lp3334
VFIN
p3335
aVFinland
p3336
aI1990
aV10-14 years
p3337
aVFemale
p3338
aI22
aF13.7
aa(lp3339
VETH
p3340
aVEthiopia
p3341
aI1990
aV1-4 years
p3342
aVFemale
p3343
aI80389
aF2313.9
aa(lp3344
VERI
p3345
aVEritrea
p3346
aI2000
aV1-4 years
p3347
aVBoth
p3348
aI8481
aF1756.8
aa(lp3349
VECU
p3350
aVEcuador
p3351
aI2000
aV25-29 years
p3352
aVFemale
p3353
aI492
aF96.4
aa(lp3354
VFJI
p3355
aVFiji
p3356
aI2000
aV28-364 days
p3357
aVMale
p3358
aI89
aF946.1
aa(lp3359
VETH
p3360
aVEthiopia
p3361
aI1970
aV1-4 years
p3362
aVFemale
p3363
aI57521
aF2831.2
aa(lp3364
VGEO
p3365
aVGeorgia
p3366
aI1990
aV10-14 years
p3367
aVMale
p3368
aI131
aF59.8
aa(lp3369
VECU
p3370
aVEcuador
p3371
aI2000
aV25-29 years
p3372
aVMale
p3373
aI1320
aF255.0
aa(lp3374
VECU
p3375
aVEcuador
p3376
aI1980
aV45-49 years
p3377
aVBoth
p3378
aI1532
aF544.8
aa(lp3379
VFIN
p3380
aVFinland
p3381
aI1980
aV75-79 years
p3382
aVBoth
p3383
aI7267
aF6661.0
aa(lp3384
VETH
p3385
aVEthiopia
p3386
aI1980
aV40-44 years
p3387
aVFemale
p3388
aI9960
aF1271.8
aa(lp3389
VGEO
p3390
aVGeorgia
p3391
aI1980
aV45-49 years
p3392
aVFemale
p3393
aI497
aF306.4
aa(lp3394
VESP
p3395
aVSpain
p3396
aI1970
aV28-364 days
p3397
aVBoth
p3398
aI5749
aF963.3
aa(lp3399
VGHA
p3400
aVGhana
p3401
aI1970
aV50-54 years
p3402
aVMale
p3403
aI1476
aF1195.9
aa(lp3404
VESP
p3405
aVSpain
p3406
aI1970
aV50-54 years
p3407
aVBoth
p3408
aI10644
aF626.8
aa(lp3409
VDZA
p3410
aVAlgeria
p3411
aI1980
aV30-34 years
p3412
aVBoth
p3413
aI3217
aF337.4
aa(lp3414
VEGY
p3415
aVEgypt
p3416
aI2000
aV30-34 years
p3417
aVMale
p3418
aI4823
aF220.3
aa(lp3419
VFRA
p3420
aVFrance
p3421
aI2000
aV70-74 years
p3422
aVFemale
p3423
aI20467
aF1467.9
aa(lp3424
VFSM
p3425
aVMicronesia, Federated States of
p3426
aI1980
aV55-59 years
p3427
aVFemale
p3428
aI15
aF1703.4
aa(lp3429
VFJI
p3430
aVFiji
p3431
aI1970
aV80+ years
p3432
aVFemale
p3433
aI67
aF13135.3
aa(lp3434
VGAB
p3435
aVGabon
p3436
aI1970
aV80+ years
p3437
aVFemale
p3438
aI344
aF13790.8
aa(lp3439
VFSM
p3440
aVMicronesia, Federated States of
p3441
aI1990
aV55-59 years
p3442
aVBoth
p3443
aI48
aF2444.5
aa(lp3444
VDOM
p3445
aVDominican Republic
p3446
aI1970
aV35-39 years
p3447
aVFemale
p3448
aI239
aF209.8
aa(lp3449
VFSM
p3450
aVMicronesia, Federated States of
p3451
aI1980
aVAll ages
p3452
aVBoth
p3453
aI784
aF1083.2
aa(lp3454
VFIN
p3455
aVFinland
p3456
aI1980
aV50-54 years
p3457
aVBoth
p3458
aI1978
aF706.1
aa(lp3459
VGHA
p3460
aVGhana
p3461
aI1990
aV7-27 days
p3462
aVBoth
p3463
aI5507
aF17120.8
aa(lp3464
VFIN
p3465
aVFinland
p3466
aI2000
aV15-19 years
p3467
aVMale
p3468
aI116
aF68.2
aa(lp3469
VGBR
p3470
aVUnited Kingdom
p3471
aI1970
aV45-49 years
p3472
aVMale
p3473
aI9931
aF552.1
aa(lp3474
VESP
p3475
aVSpain
p3476
aI1970
aV5-9 years
p3477
aVMale
p3478
aI889
aF54.1
aa(lp3479
VFJI
p3480
aVFiji
p3481
aI2000
aV15-19 years
p3482
aVFemale
p3483
aI46
aF106.6
aa(lp3484
VGEO
p3485
aVGeorgia
p3486
aI1970
aV75-79 years
p3487
aVBoth
p3488
aI4794
aF7179.2
aa(lp3489
VFSM
p3490
aVMicronesia, Federated States of
p3491
aI2010
aV50-54 years
p3492
aVMale
p3493
aI40
aF1905.6
aa(lp3494
VEGY
p3495
aVEgypt
p3496
aI2010
aV75-79 years
p3497
aVMale
p3498
aI27390
aF8305.0
aa(lp3499
VETH
p3500
aVEthiopia
p3501
aI1970
aV35-39 years
p3502
aVBoth
p3503
aI18013
aF1176.4
aa(lp3504
VGAB
p3505
aVGabon
p3506
aI1980
aV35-39 years
p3507
aVFemale
p3508
aI75
aF457.3
aa(lp3509
VFSM
p3510
aVMicronesia, Federated States of
p3511
aI2010
aV55-59 years
p3512
aVMale
p3513
aI54
aF2679.8
aa(lp3514
VGAB
p3515
aVGabon
p3516
aI1990
aV0-6 days
p3517
aVMale
p3518
aI562
aF163293.7
aa(lp3519
VEST
p3520
aVEstonia
p3521
aI2010
aV7-27 days
p3522
aVFemale
p3523
aI6
aF1238.6
aa(lp3524
VDOM
p3525
aVDominican Republic
p3526
aI2000
aV55-59 years
p3527
aVBoth
p3528
aI1727
aF758.9
aa(lp3529
VFRA
p3530
aVFrance
p3531
aI1970
aV55-59 years
p3532
aVFemale
p3533
aI9402
aF668.3
aa(lp3534
VECU
p3535
aVEcuador
p3536
aI1980
aV30-34 years
p3537
aVFemale
p3538
aI528
aF229.0
aa(lp3539
VERI
p3540
aVEritrea
p3541
aI1980
aV0-6 days
p3542
aVFemale
p3543
aI1077
aF107191.4
aa(lp3544
VDZA
p3545
aVAlgeria
p3546
aI1970
aV70-74 years
p3547
aVBoth
p3548
aI9131
aF5984.4
aa(lp3549
VERI
p3550
aVEritrea
p3551
aI1970
aV5-9 years
p3552
aVFemale
p3553
aI329
aF239.5
aa(lp3554
VEGY
p3555
aVEgypt
p3556
aI2000
aV75-79 years
p3557
aVFemale
p3558
aI18573
aF6282.9
aa(lp3559
VEGY
p3560
aVEgypt
p3561
aI2000
aV28-364 days
p3562
aVBoth
p3563
aI25595
aF1635.4
aa(lp3564
VFSM
p3565
aVMicronesia, Federated States of
p3566
aI1970
aV75-79 years
p3567
aVBoth
p3568
aI36
aF10124.1
aa(lp3569
VDZA
p3570
aVAlgeria
p3571
aI1990
aV1-4 years
p3572
aVFemale
p3573
aI4275
aF277.0
aa(lp3574
VESP
p3575
aVSpain
p3576
aI1970
aV75-79 years
p3577
aVMale
p3578
aI20735
aF9045.1
aa(lp3579
VDOM
p3580
aVDominican Republic
p3581
aI1980
aV80+ years
p3582
aVFemale
p3583
aI1314
aF12275.9
aa(lp3584
VFRA
p3585
aVFrance
p3586
aI2010
aV28-364 days
p3587
aVFemale
p3588
aI469
aF131.9
aa(lp3589
VERI
p3590
aVEritrea
p3591
aI2010
aV15-19 years
p3592
aVBoth
p3593
aI1155
aF211.1
aa(lp3594
VETH
p3595
aVEthiopia
p3596
aI1970
aV0-6 days
p3597
aVMale
p3598
aI40414
aF310801.7
aa(lp3599
VDOM
p3600
aVDominican Republic
p3601
aI2010
aV20-24 years
p3602
aVMale
p3603
aI616
aF137.0
aa(lp3604
VEST
p3605
aVEstonia
p3606
aI1990
aVAll ages
p3607
aVBoth
p3608
aI19296
aF1234.5
aa(lp3609
VFRA
p3610
aVFrance
p3611
aI2000
aV1-4 years
p3612
aVMale
p3613
aI421
aF28.0
aa(lp3614
VESP
p3615
aVSpain
p3616
aI1970
aV55-59 years
p3617
aVBoth
p3618
aI15652
aF949.6
aa(lp3619
VFIN
p3620
aVFinland
p3621
aI2000
aV0-6 days
p3622
aVFemale
p3623
aI48
aF8926.0
aa(lp3624
VGAB
p3625
aVGabon
p3626
aI2000
aV55-59 years
p3627
aVFemale
p3628
aI193
aF1391.7
aa(lp3629
VGAB
p3630
aVGabon
p3631
aI1970
aV15-19 years
p3632
aVMale
p3633
aI64
aF278.7
aa(lp3634
VEST
p3635
aVEstonia
p3636
aI2010
aV40-44 years
p3637
aVMale
p3638
aI173
aF409.1
aa(lp3639
VEST
p3640
aVEstonia
p3641
aI2010
aV15-19 years
p3642
aVFemale
p3643
aI10
aF25.1
aa(lp3644
VEGY
p3645
aVEgypt
p3646
aI2000
aV50-54 years
p3647
aVFemale
p3648
aI8697
aF637.8
aa(lp3649
VFIN
p3650
aVFinland
p3651
aI2010
aV5-9 years
p3652
aVMale
p3653
aI15
aF10.5
aa(lp3654
VFIN
p3655
aVFinland
p3656
aI2000
aV75-79 years
p3657
aVFemale
p3658
aI3866
aF3693.1
aa(lp3659
VGAB
p3660
aVGabon
p3661
aI2000
aVAll ages
p3662
aVBoth
p3663
aI14012
aF1133.9
aa(lp3664
VDOM
p3665
aVDominican Republic
p3666
aI2010
aV55-59 years
p3667
aVMale
p3668
aI1725
aF980.3
aa(lp3669
VETH
p3670
aVEthiopia
p3671
aI1980
aVAll ages
p3672
aVBoth
p3673
aI723236
aF2039.2
aa(lp3674
VDZA
p3675
aVAlgeria
p3676
aI1980
aV5-9 years
p3677
aVMale
p3678
aI2686
aF186.7
aa(lp3679
VEGY
p3680
aVEgypt
p3681
aI1980
aVAll ages
p3682
aVBoth
p3683
aI503409
aF1121.0
aa(lp3684
VERI
p3685
aVEritrea
p3686
aI2010
aV10-14 years
p3687
aVMale
p3688
aI291
aF96.8
aa(lp3689
VGBR
p3690
aVUnited Kingdom
p3691
aI1970
aV7-27 days
p3692
aVFemale
p3693
aI721
aF3072.3
aa(lp3694
VERI
p3695
aVEritrea
p3696
aI1970
aV45-49 years
p3697
aVMale
p3698
aI605
aF1914.5
aa(lp3699
VERI
p3700
aVEritrea
p3701
aI2010
aV10-14 years
p3702
aVBoth
p3703
aI597
aF100.0
aa(lp3704
VESP
p3705
aVSpain
p3706
aI2010
aV65-69 years
p3707
aVBoth
p3708
aI22092
aF1088.9
aa(lp3709
VERI
p3710
aVEritrea
p3711
aI2000
aV10-14 years
p3712
aVMale
p3713
aI2471
aF992.8
aa(lp3714
VFSM
p3715
aVMicronesia, Federated States of
p3716
aI1970
aV80+ years
p3717
aVBoth
p3718
aI40
aF16943.6
aa(lp3719
VFJI
p3720
aVFiji
p3721
aI1990
aV0-6 days
p3722
aVBoth
p3723
aI259
aF63762.0
aa(lp3724
VEGY
p3725
aVEgypt
p3726
aI2000
aV25-29 years
p3727
aVBoth
p3728
aI7083
aF145.3
aa(lp3729
VESP
p3730
aVSpain
p3731
aI1990
aV30-34 years
p3732
aVMale
p3733
aI2697
aF190.7
aa(lp3734
VDOM
p3735
aVDominican Republic
p3736
aI2010
aV70-74 years
p3737
aVMale
p3738
aI3174
aF3936.7
aa(lp3739
VESP
p3740
aVSpain
p3741
aI1970
aV75-79 years
p3742
aVBoth
p3743
aI43452
aF7445.0
aa(lp3744
VFRA
p3745
aVFrance
p3746
aI2010
aV7-27 days
p3747
aVMale
p3748
aI261
aF1116.6
aa(lp3749
VFJI
p3750
aVFiji
p3751
aI2010
aV0-6 days
p3752
aVMale
p3753
aI123
aF67839.7
aa(lp3754
VECU
p3755
aVEcuador
p3756
aI1980
aV25-29 years
p3757
aVBoth
p3758
aI1456
aF235.8
aa(lp3759
VGBR
p3760
aVUnited Kingdom
p3761
aI2010
aV15-19 years
p3762
aVMale
p3763
aI907
aF44.9
aa(lp3764
VDZA
p3765
aVAlgeria
p3766
aI1980
aV15-19 years
p3767
aVMale
p3768
aI2083
aF199.3
aa(lp3769
VESP
p3770
aVSpain
p3771
aI2010
aV20-24 years
p3772
aVFemale
p3773
aI228
aF19.8
aa(lp3774
VETH
p3775
aVEthiopia
p3776
aI1980
aV60-64 years
p3777
aVFemale
p3778
aI14608
aF4347.9
aa(lp3779
VGAB
p3780
aVGabon
p3781
aI2000
aV15-19 years
p3782
aVBoth
p3783
aI327
aF252.0
aa(lp3784
VECU
p3785
aVEcuador
p3786
aI2010
aV30-34 years
p3787
aVMale
p3788
aI1436
aF258.1
aa(lp3789
VFJI
p3790
aVFiji
p3791
aI2000
aV10-14 years
p3792
aVMale
p3793
aI23
aF51.0
aa(lp3794
VDZA
p3795
aVAlgeria
p3796
aI1970
aV50-54 years
p3797
aVMale
p3798
aI2219
aF1260.5
aa(lp3799
VFIN
p3800
aVFinland
p3801
aI2000
aV55-59 years
p3802
aVFemale
p3803
aI605
aF403.5
aa(lp3804
VDZA
p3805
aVAlgeria
p3806
aI2010
aV70-74 years
p3807
aVBoth
p3808
aI14657
aF3035.9
aa(lp3809
VGBR
p3810
aVUnited Kingdom
p3811
aI2010
aV50-54 years
p3812
aVFemale
p3813
aI5711
aF283.0
aa(lp3814
VDZA
p3815
aVAlgeria
p3816
aI1990
aV5-9 years
p3817
aVFemale
p3818
aI1185
aF63.9
aa(lp3819
VFJI
p3820
aVFiji
p3821
aI2000
aV75-79 years
p3822
aVBoth
p3823
aI397
aF9280.7
aa(lp3824
VFIN
p3825
aVFinland
p3826
aI1980
aVAll ages
p3827
aVBoth
p3828
aI44233
aF926.2
aa(lp3829
VFJI
p3830
aVFiji
p3831
aI1990
aV1-4 years
p3832
aVMale
p3833
aI89
aF205.2
aa(lp3834
VETH
p3835
aVEthiopia
p3836
aI1970
aVAll ages
p3837
aVFemale
p3838
aI270586
aF1851.7
aa(lp3839
VFRA
p3840
aVFrance
p3841
aI1990
aV1-4 years
p3842
aVFemale
p3843
aI532
aF35.8
aa(lp3844
VGAB
p3845
aVGabon
p3846
aI1990
aV30-34 years
p3847
aVBoth
p3848
aI298
aF474.7
aa(lp3849
VDOM
p3850
aVDominican Republic
p3851
aI1980
aV55-59 years
p3852
aVBoth
p3853
aI1309
aF908.1
aa(lp3854
VESP
p3855
aVSpain
p3856
aI2010
aV35-39 years
p3857
aVBoth
p3858
aI3253
aF84.9
aa(lp3859
VGAB
p3860
aVGabon
p3861
aI1970
aV28-364 days
p3862
aVFemale
p3863
aI340
aF4480.6
aa(lp3864
VESP
p3865
aVSpain
p3866
aI1990
aV80+ years
p3867
aVMale
p3868
aI53630
aF13712.2
aa(lp3869
VFSM
p3870
aVMicronesia, Federated States of
p3871
aI1970
aV28-364 days
p3872
aVMale
p3873
aI58
aF5290.4
aa(lp3874
VGEO
p3875
aVGeorgia
p3876
aI1990
aV7-27 days
p3877
aVMale
p3878
aI221
aF8424.7
aa(lp3879
VEST
p3880
aVEstonia
p3881
aI2010
aV75-79 years
p3882
aVBoth
p3883
aI2275
aF4772.5
aa(lp3884
VETH
p3885
aVEthiopia
p3886
aI1980
aV70-74 years
p3887
aVMale
p3888
aI12427
aF9029.3
aa(lp3889
VFSM
p3890
aVMicronesia, Federated States of
p3891
aI1970
aV1-4 years
p3892
aVMale
p3893
aI70
aF1652.4
aa(lp3894
VERI
p3895
aVEritrea
p3896
aI2000
aVAll ages
p3897
aVBoth
p3898
aI69302
aF1881.3
aa(lp3899
VESP
p3900
aVSpain
p3901
aI2010
aV70-74 years
p3902
aVMale
p3903
aI20936
aF2636.1
aa(lp3904
VEGY
p3905
aVEgypt
p3906
aI1990
aVAll ages
p3907
aVFemale
p3908
aI190688
aF673.7
aa(lp3909
VFIN
p3910
aVFinland
p3911
aI2000
aV7-27 days
p3912
aVFemale
p3913
aI12
aF767.6
aa(lp3914
VECU
p3915
aVEcuador
p3916
aI2000
aV70-74 years
p3917
aVBoth
p3918
aI4428
aF2618.0
aa(lp3919
VEGY
p3920
aVEgypt
p3921
aI2000
aV10-14 years
p3922
aVBoth
p3923
aI4148
aF50.0
aa(lp3924
VGHA
p3925
aVGhana
p3926
aI1980
aV1-4 years
p3927
aVBoth
p3928
aI32538
aF2031.1
aa(lp3929
VDOM
p3930
aVDominican Republic
p3931
aI2000
aVAll ages
p3932
aVFemale
p3933
aI18182
aF425.1
aa(lp3934
VEST
p3935
aVEstonia
p3936
aI1990
aV45-49 years
p3937
aVBoth
p3938
aI582
aF662.9
aa(lp3939
VDOM
p3940
aVDominican Republic
p3941
aI1980
aV30-34 years
p3942
aVBoth
p3943
aI471
aF147.7
aa(lp3944
VFRA
p3945
aVFrance
p3946
aI1990
aV20-24 years
p3947
aVMale
p3948
aI3166
aF147.1
aa(lp3949
VGBR
p3950
aVUnited Kingdom
p3951
aI1980
aV75-79 years
p3952
aVBoth
p3953
aI115121
aF6869.5
aa(lp3954
VFSM
p3955
aVMicronesia, Federated States of
p3956
aI2000
aV5-9 years
p3957
aVFemale
p3958
aI2
aF30.6
aa(lp3959
VDOM
p3960
aVDominican Republic
p3961
aI1990
aV28-364 days
p3962
aVMale
p3963
aI2391
aF2454.9
aa(lp3964
VGAB
p3965
aVGabon
p3966
aI1990
aV55-59 years
p3967
aVMale
p3968
aI282
aF2497.3
aa(lp3969
VGEO
p3970
aVGeorgia
p3971
aI1970
aV0-6 days
p3972
aVMale
p3973
aI1210
aF138712.2
aa(lp3974
VESP
p3975
aVSpain
p3976
aI1980
aV1-4 years
p3977
aVMale
p3978
aI851
aF66.0
aa(lp3979
VFIN
p3980
aVFinland
p3981
aI2010
aV75-79 years
p3982
aVMale
p3983
aI3680
aF4929.1
aa(lp3984
VGAB
p3985
aVGabon
p3986
aI2010
aV70-74 years
p3987
aVMale
p3988
aI588
aF7438.2
aa(lp3989
VGHA
p3990
aVGhana
p3991
aI1970
aV75-79 years
p3992
aVBoth
p3993
aI3096
aF8056.2
aa(lp3994
VGBR
p3995
aVUnited Kingdom
p3996
aI1980
aV70-74 years
p3997
aVFemale
p3998
aI43604
aF3148.6
aa(lp3999
VGAB
p4000
aVGabon
p4001
aI2000
aV55-59 years
p4002
aVFemale
p4003
aI193
aF1391.7
aa(lp4004
VFIN
p4005
aVFinland
p4006
aI1980
aV45-49 years
p4007
aVMale
p4008
aI873
aF648.4
aa(lp4009
VEST
p4010
aVEstonia
p4011
aI2010
aV20-24 years
p4012
aVMale
p4013
aI88
aF161.5
aa(lp4014
VFRA
p4015
aVFrance
p4016
aI1980
aV1-4 years
p4017
aVMale
p4018
aI968
aF63.3
aa(lp4019
VEGY
p4020
aVEgypt
p4021
aI1970
aV75-79 years
p4022
aVBoth
p4023
aI16767
aF8843.7
aa(lp4024
VEGY
p4025
aVEgypt
p4026
aI2010
aV40-44 years
p4027
aVFemale
p4028
aI6211
aF282.9
aa(lp4029
VFJI
p4030
aVFiji
p4031
aI1970
aV55-59 years
p4032
aVBoth
p4033
aI220
aF1900.5
aa(lp4034
VFJI
p4035
aVFiji
p4036
aI1990
aV15-19 years
p4037
aVMale
p4038
aI57
aF152.4
aa(lp4039
VETH
p4040
aVEthiopia
p4041
aI2000
aV55-59 years
p4042
aVBoth
p4043
aI33792
aF2238.8
aa(lp4044
VGHA
p4045
aVGhana
p4046
aI1970
aV30-34 years
p4047
aVBoth
p4048
aI2093
aF392.2
aa(lp4049
VEGY
p4050
aVEgypt
p4051
aI1970
aV30-34 years
p4052
aVBoth
p4053
aI6796
aF339.3
aa(lp4054
VEST
p4055
aVEstonia
p4056
aI1990
aV7-27 days
p4057
aVMale
p4058
aI27
aF4364.6
aa(lp4059
VERI
p4060
aVEritrea
p4061
aI1980
aV40-44 years
p4062
aVFemale
p4063
aI570
aF1066.5
aa(lp4064
VETH
p4065
aVEthiopia
p4066
aI2000
aV70-74 years
p4067
aVBoth
p4068
aI39798
aF7062.5
aa(lp4069
VETH
p4070
aVEthiopia
p4071
aI2000
aV55-59 years
p4072
aVMale
p4073
aI18103
aF2479.5
aa(lp4074
VFSM
p4075
aVMicronesia, Federated States of
p4076
aI2010
aV55-59 years
p4077
aVMale
p4078
aI54
aF2679.8
aa(lp4079
VETH
p4080
aVEthiopia
p4081
aI2010
aV25-29 years
p4082
aVMale
p4083
aI12771
aF405.0
aa(lp4084
VERI
p4085
aVEritrea
p4086
aI1990
aV1-4 years
p4087
aVMale
p4088
aI5609
aF2658.8
aa(lp4089
VDZA
p4090
aVAlgeria
p4091
aI1970
aV45-49 years
p4092
aVBoth
p4093
aI3032
aF742.7
aa(lp4094
VGEO
p4095
aVGeorgia
p4096
aI1990
aV5-9 years
p4097
aVFemale
p4098
aI123
aF55.3
aa(lp4099
VGBR
p4100
aVUnited Kingdom
p4101
aI1980
aV80+ years
p4102
aVBoth
p4103
aI214507
aF14176.5
aa(lp4104
VGBR
p4105
aVUnited Kingdom
p4106
aI1980
aV75-79 years
p4107
aVMale
p4108
aI57738
aF9418.4
aa(lp4109
VECU
p4110
aVEcuador
p4111
aI2000
aV40-44 years
p4112
aVMale
p4113
aI1257
aF381.7
aa(lp4114
VFIN
p4115
aVFinland
p4116
aI1990
aV30-34 years
p4117
aVBoth
p4118
aI516
aF133.9
aa(lp4119
VESP
p4120
aVSpain
p4121
aI1970
aV65-69 years
p4122
aVFemale
p4123
aI13362
aF1878.8
aa(lp4124
VGBR
p4125
aVUnited Kingdom
p4126
aI1990
aV5-9 years
p4127
aVMale
p4128
aI385
aF20.7
aa(lp4129
VGAB
p4130
aVGabon
p4131
aI2000
aV28-364 days
p4132
aVBoth
p4133
aI1035
aF3030.9
aa(lp4134
VGBR
p4135
aVUnited Kingdom
p4136
aI2010
aV20-24 years
p4137
aVFemale
p4138
aI504
aF24.4
aa(lp4139
VGBR
p4140
aVUnited Kingdom
p4141
aI2010
aV7-27 days
p4142
aVFemale
p4143
aI233
aF1101.8
aa(lp4144
VGEO
p4145
aVGeorgia
p4146
aI1970
aV60-64 years
p4147
aVBoth
p4148
aI3585
aF1993.6
aa(lp4149
VFRA
p4150
aVFrance
p4151
aI2010
aV75-79 years
p4152
aVMale
p4153
aI40390
aF4334.0
aa(lp4154
VEGY
p4155
aVEgypt
p4156
aI1980
aV7-27 days
p4157
aVFemale
p4158
aI16124
aF33529.3
aa(lp4159
VFSM
p4160
aVMicronesia, Federated States of
p4161
aI2000
aV10-14 years
p4162
aVBoth
p4163
aI7
aF48.7
aa(lp4164
VDZA
p4165
aVAlgeria
p4166
aI2010
aV10-14 years
p4167
aVBoth
p4168
aI946
aF31.6
aa(lp4169
VDNK
p4170
aVDenmark
p4171
aI2000
aV60-64 years
p4172
aVBoth
p4173
aI3387
aF1284.5
aa(lp4174
VFIN
p4175
aVFinland
p4176
aI2000
aV0-6 days
p4177
aVBoth
p4178
aI113
aF10270.8
aa(lp4179
VEGY
p4180
aVEgypt
p4181
aI1980
aV70-74 years
p4182
aVBoth
p4183
aI25704
aF5586.4
aa(lp4184
VEGY
p4185
aVEgypt
p4186
aI2010
aV80+ years
p4187
aVFemale
p4188
aI40545
aF12333.5
aa(lp4189
VFSM
p4190
aVMicronesia, Federated States of
p4191
aI2010
aV55-59 years
p4192
aVMale
p4193
aI54
aF2679.8
aa(lp4194
VERI
p4195
aVEritrea
p4196
aI1990
aV65-69 years
p4197
aVBoth
p4198
aI1918
aF5268.5
aa(lp4199
VFSM
p4200
aVMicronesia, Federated States of
p4201
aI1970
aV25-29 years
p4202
aVFemale
p4203
aI5
aF276.5
aa(lp4204
VGEO
p4205
aVGeorgia
p4206
aI1980
aV75-79 years
p4207
aVFemale
p4208
aI2873
aF4937.7
aa(lp4209
VGEO
p4210
aVGeorgia
p4211
aI2000
aV75-79 years
p4212
aVMale
p4213
aI2418
aF7428.8
aa(lp4214
VESP
p4215
aVSpain
p4216
aI1970
aV45-49 years
p4217
aVFemale
p4218
aI3132
aF290.3
aa(lp4219
VDOM
p4220
aVDominican Republic
p4221
aI1980
aV50-54 years
p4222
aVMale
p4223
aI614
aF632.8
aa(lp4224
VGAB
p4225
aVGabon
p4226
aI2000
aV55-59 years
p4227
aVMale
p4228
aI410
aF2841.6
aa(lp4229
VEGY
p4230
aVEgypt
p4231
aI2010
aV25-29 years
p4232
aVFemale
p4233
aI3672
aF100.4
aa(lp4234
VFJI
p4235
aVFiji
p4236
aI2010
aV0-6 days
p4237
aVFemale
p4238
aI96
aF55935.1
aa(lp4239
VGEO
p4240
aVGeorgia
p4241
aI2010
aV1-4 years
p4242
aVMale
p4243
aI167
aF152.8
aa(lp4244
VFRA
p4245
aVFrance
p4246
aI1980
aVAll ages
p4247
aVMale
p4248
aI279582
aF1060.7
aa(lp4249
VEST
p4250
aVEstonia
p4251
aI2010
aV15-19 years
p4252
aVBoth
p4253
aI38
aF48.9
aa(lp4254
VGEO
p4255
aVGeorgia
p4256
aI1970
aV45-49 years
p4257
aVMale
p4258
aI862
aF896.4
aa(lp4259
VFRA
p4260
aVFrance
p4261
aI1980
aVAll ages
p4262
aVBoth
p4263
aI534669
aF990.6
aa(lp4264
VDOM
p4265
aVDominican Republic
p4266
aI1970
aV7-27 days
p4267
aVBoth
p4268
aI2677
aF25759.8
aa(lp4269
VFJI
p4270
aVFiji
p4271
aI1970
aV50-54 years
p4272
aVBoth
p4273
aI204
aF1314.4
aa(lp4274
VESP
p4275
aVSpain
p4276
aI2010
aV55-59 years
p4277
aVBoth
p4278
aI12426
aF482.7
aa(lp4279
VEGY
p4280
aVEgypt
p4281
aI1990
aV65-69 years
p4282
aVBoth
p4283
aI31063
aF3289.8
aa(lp4284
VDOM
p4285
aVDominican Republic
p4286
aI1980
aV5-9 years
p4287
aVBoth
p4288
aI857
aF104.7
aa(lp4289
VERI
p4290
aVEritrea
p4291
aI1980
aV45-49 years
p4292
aVMale
p4293
aI779
aF1778.6
aa(lp4294
VGEO
p4295
aVGeorgia
p4296
aI1990
aV5-9 years
p4297
aVMale
p4298
aI162
aF70.1
aa(lp4299
VETH
p4300
aVEthiopia
p4301
aI1980
aV75-79 years
p4302
aVBoth
p4303
aI20352
aF12334.8
aa(lp4304
VDZA
p4305
aVAlgeria
p4306
aI1990
aV28-364 days
p4307
aVBoth
p4308
aI16412
aF2264.7
aa(lp4309
VDZA
p4310
aVAlgeria
p4311
aI2010
aV65-69 years
p4312
aVFemale
p4313
aI4932
aF1641.8
aa(lp4314
VECU
p4315
aVEcuador
p4316
aI1970
aV0-6 days
p4317
aVMale
p4318
aI1557
aF63833.7
aa(lp4319
VFJI
p4320
aVFiji
p4321
aI1980
aV30-34 years
p4322
aVBoth
p4323
aI155
aF362.3
aa(lp4324
VERI
p4325
aVEritrea
p4326
aI2000
aV0-6 days
p4327
aVBoth
p4328
aI3225
aF119593.3
aa(lp4329
VGAB
p4330
aVGabon
p4331
aI2010
aV1-4 years
p4332
aVMale
p4333
aI441
aF594.1
aa(lp4334
VFIN
p4335
aVFinland
p4336
aI1990
aV28-364 days
p4337
aVFemale
p4338
aI46
aF161.8
aa(lp4339
VGAB
p4340
aVGabon
p4341
aI1980
aV70-74 years
p4342
aVFemale
p4343
aI346
aF4904.4
aa(lp4344
VESP
p4345
aVSpain
p4346
aI1990
aV25-29 years
p4347
aVFemale
p4348
aI822
aF53.9
aa(lp4349
VGEO
p4350
aVGeorgia
p4351
aI1990
aV70-74 years
p4352
aVBoth
p4353
aI4567
aF3886.2
aa(lp4354
VFJI
p4355
aVFiji
p4356
aI2010
aV0-6 days
p4357
aVMale
p4358
aI123
aF67839.7
aa(lp4359
VFRA
p4360
aVFrance
p4361
aI2010
aV25-29 years
p4362
aVFemale
p4363
aI589
aF29.5
aa(lp4364
VFRA
p4365
aVFrance
p4366
aI1970
aV45-49 years
p4367
aVMale
p4368
aI10527
aF644.2
aa(lp4369
VFJI
p4370
aVFiji
p4371
aI2000
aV70-74 years
p4372
aVFemale
p4373
aI229
aF5592.7
aa(lp4374
VFRA
p4375
aVFrance
p4376
aI1970
aV55-59 years
p4377
aVMale
p4378
aI19508
aF1518.3
aa(lp4379
VDZA
p4380
aVAlgeria
p4381
aI2000
aV20-24 years
p4382
aVMale
p4383
aI2164
aF133.7
aa(lp4384
VERI
p4385
aVEritrea
p4386
aI2010
aV25-29 years
p4387
aVBoth
p4388
aI1979
aF421.1
aa(lp4389
VGHA
p4390
aVGhana
p4391
aI1980
aV1-4 years
p4392
aVMale
p4393
aI18256
aF2236.8
aa(lp4394
VFSM
p4395
aVMicronesia, Federated States of
p4396
aI2010
aV40-44 years
p4397
aVMale
p4398
aI20
aF900.1
aa(lp4399
VDNK
p4400
aVDenmark
p4401
aI2000
aV70-74 years
p4402
aVFemale
p4403
aI2887
aF2718.3
aa(lp4404
VDOM
p4405
aVDominican Republic
p4406
aI2010
aV35-39 years
p4407
aVFemale
p4408
aI476
aF145.6
aa(lp4409
VFRA
p4410
aVFrance
p4411
aI1980
aV45-49 years
p4412
aVBoth
p4413
aI14313
aF444.2
aa(lp4414
VGEO
p4415
aVGeorgia
p4416
aI2000
aV0-6 days
p4417
aVFemale
p4418
aI317
aF61358.9
aa(lp4419
VETH
p4420
aVEthiopia
p4421
aI2010
aV0-6 days
p4422
aVFemale
p4423
aI25270
aF103401.1
aa(lp4424
VGHA
p4425
aVGhana
p4426
aI1970
aV55-59 years
p4427
aVBoth
p4428
aI3106
aF1577.4
aa(lp4429
VGAB
p4430
aVGabon
p4431
aI2000
aV55-59 years
p4432
aVBoth
p4433
aI602
aF2130.9
aa(lp4434
VERI
p4435
aVEritrea
p4436
aI2010
aV80+ years
p4437
aVMale
p4438
aI648
aF15214.0
aa(lp4439
VFSM
p4440
aVMicronesia, Federated States of
p4441
aI1990
aV20-24 years
p4442
aVMale
p4443
aI14
aF314.5
aa(lp4444
VETH
p4445
aVEthiopia
p4446
aI1970
aV28-364 days
p4447
aVBoth
p4448
aI95655
aF8530.6
aa(lp4449
VDOM
p4450
aVDominican Republic
p4451
aI1970
aV40-44 years
p4452
aVFemale
p4453
aI270
aF288.3
aa(lp4454
VFJI
p4455
aVFiji
p4456
aI2000
aV65-69 years
p4457
aVFemale
p4458
aI236
aF3569.8
aa(lp4459
VETH
p4460
aVEthiopia
p4461
aI1970
aV60-64 years
p4462
aVBoth
p4463
aI24534
aF4648.5
aa(lp4464
VFRA
p4465
aVFrance
p4466
aI1980
aV55-59 years
p4467
aVMale
p4468
aI20444
aF1393.2
aa(lp4469
VDOM
p4470
aVDominican Republic
p4471
aI1970
aV45-49 years
p4472
aVBoth
p4473
aI681
aF431.9
aa(lp4474
VEGY
p4475
aVEgypt
p4476
aI2010
aV75-79 years
p4477
aVBoth
p4478
aI54523
aF7120.8
aa(lp4479
VFJI
p4480
aVFiji
p4481
aI1970
aV55-59 years
p4482
aVMale
p4483
aI142
aF2315.5
aa(lp4484
VDOM
p4485
aVDominican Republic
p4486
aI1990
aVAll ages
p4487
aVFemale
p4488
aI16117
aF451.3
aa(lp4489
VDZA
p4490
aVAlgeria
p4491
aI1990
aV60-64 years
p4492
aVFemale
p4493
aI3070
aF1258.9
aa(lp4494
VECU
p4495
aVEcuador
p4496
aI2010
aV75-79 years
p4497
aVFemale
p4498
aI2682
aF2923.8
aa(lp4499
VEGY
p4500
aVEgypt
p4501
aI2000
aV25-29 years
p4502
aVMale
p4503
aI4627
aF186.6
aa(lp4504
VESP
p4505
aVSpain
p4506
aI2010
aV7-27 days
p4507
aVFemale
p4508
aI120
aF866.5
aa(lp4509
VFSM
p4510
aVMicronesia, Federated States of
p4511
aI1970
aV1-4 years
p4512
aVMale
p4513
aI70
aF1652.4
aa(lp4514
VETH
p4515
aVEthiopia
p4516
aI1970
aV70-74 years
p4517
aVMale
p4518
aI8083
aF9072.0
aa(lp4519
VGBR
p4520
aVUnited Kingdom
p4521
aI1980
aV0-6 days
p4522
aVMale
p4523
aI2866
aF42354.7
aa(lp4524
VFSM
p4525
aVMicronesia, Federated States of
p4526
aI2000
aV15-19 years
p4527
aVMale
p4528
aI11
aF161.7
aa(lp4529
VDOM
p4530
aVDominican Republic
p4531
aI1970
aV75-79 years
p4532
aVBoth
p4533
aI1373
aF6636.3
aa(lp4534
VFSM
p4535
aVMicronesia, Federated States of
p4536
aI1990
aVAll ages
p4537
aVMale
p4538
aI456
aF926.7
aa(lp4539
VGBR
p4540
aVUnited Kingdom
p4541
aI1990
aV75-79 years
p4542
aVBoth
p4543
aI110970
aF5917.9
aa(lp4544
VETH
p4545
aVEthiopia
p4546
aI2000
aV40-44 years
p4547
aVFemale
p4548
aI13866
aF1030.9
aa(lp4549
VERI
p4550
aVEritrea
p4551
aI2010
aV50-54 years
p4552
aVMale
p4553
aI819
aF1660.0
aa(lp4554
VDNK
p4555
aVDenmark
p4556
aI2010
aV5-9 years
p4557
aVBoth
p4558
aI25
aF7.7
aa(lp4559
VFSM
p4560
aVMicronesia, Federated States of
p4561
aI1970
aV15-19 years
p4562
aVBoth
p4563
aI12
aF167.5
aa(lp4564
VERI
p4565
aVEritrea
p4566
aI1970
aV50-54 years
p4567
aVMale
p4568
aI652
aF2659.9
aa(lp4569
VGEO
p4570
aVGeorgia
p4571
aI1980
aV15-19 years
p4572
aVMale
p4573
aI331
aF136.3
aa(lp4574
VDOM
p4575
aVDominican Republic
p4576
aI1990
aV5-9 years
p4577
aVMale
p4578
aI412
aF87.1
aa(lp4579
VERI
p4580
aVEritrea
p4581
aI2000
aV40-44 years
p4582
aVFemale
p4583
aI1272
aF1924.9
aa(lp4584
VGAB
p4585
aVGabon
p4586
aI1970
aV40-44 years
p4587
aVMale
p4588
aI163
aF1081.5
aa(lp4589
VGAB
p4590
aVGabon
p4591
aI2000
aV15-19 years
p4592
aVBoth
p4593
aI327
aF252.0
aa(lp4594
VERI
p4595
aVEritrea
p4596
aI2000
aV75-79 years
p4597
aVBoth
p4598
aI1450
aF10331.0
aa(lp4599
VETH
p4600
aVEthiopia
p4601
aI2000
aV40-44 years
p4602
aVFemale
p4603
aI13866
aF1030.9
aa(lp4604
VETH
p4605
aVEthiopia
p4606
aI2000
aV80+ years
p4607
aVFemale
p4608
aI19047
aF16185.2
aa(lp4609
VGEO
p4610
aVGeorgia
p4611
aI1990
aV1-4 years
p4612
aVMale
p4613
aI512
aF275.1
aa(lp4614
VDNK
p4615
aVDenmark
p4616
aI2000
aV35-39 years
p4617
aVBoth
p4618
aI484
aF118.7
aa(lp4619
VGBR
p4620
aVUnited Kingdom
p4621
aI1980
aV80+ years
p4622
aVBoth
p4623
aI214507
aF14176.5
aa(lp4624
VDZA
p4625
aVAlgeria
p4626
aI2000
aV28-364 days
p4627
aVBoth
p4628
aI9397
aF1647.6
aa(lp4629
VFRA
p4630
aVFrance
p4631
aI1990
aV70-74 years
p4632
aVFemale
p4633
aI14182
aF1707.9
aa(lp4634
VFIN
p4635
aVFinland
p4636
aI1980
aV28-364 days
p4637
aVMale
p4638
aI77
aF250.8
aa(lp4639
VEST
p4640
aVEstonia
p4641
aI2010
aV55-59 years
p4642
aVBoth
p4643
aI916
aF1060.9
aa(lp4644
VEST
p4645
aVEstonia
p4646
aI1980
aV80+ years
p4647
aVBoth
p4648
aI5135
aF15890.3
aa(lp4649
VERI
p4650
aVEritrea
p4651
aI2010
aV55-59 years
p4652
aVMale
p4653
aI918
aF2244.9
aa(lp4654
VGHA
p4655
aVGhana
p4656
aI1980
aV50-54 years
p4657
aVBoth
p4658
aI3204
aF1036.1
aa(lp4659
VERI
p4660
aVEritrea
p4661
aI1990
aV0-6 days
p4662
aVMale
p4663
aI1930
aF160458.5
aa(lp4664
VGAB
p4665
aVGabon
p4666
aI1980
aV25-29 years
p4667
aVMale
p4668
aI119
aF444.0
aa(lp4669
VECU
p4670
aVEcuador
p4671
aI2000
aV60-64 years
p4672
aVMale
p4673
aI1866
aF1334.1
aa(lp4674
VGAB
p4675
aVGabon
p4676
aI1980
aVAll ages
p4677
aVFemale
p4678
aI3820
aF1100.4
aa(lp4679
VFIN
p4680
aVFinland
p4681
aI2000
aV25-29 years
p4682
aVBoth
p4683
aI236
aF77.2
aa(lp4684
VEGY
p4685
aVEgypt
p4686
aI2000
aV28-364 days
p4687
aVFemale
p4688
aI13422
aF1754.6
aa(lp4689
VFIN
p4690
aVFinland
p4691
aI2010
aV60-64 years
p4692
aVBoth
p4693
aI3609
aF903.8
aa(lp4694
VFJI
p4695
aVFiji
p4696
aI1990
aV28-364 days
p4697
aVFemale
p4698
aI93
aF991.8
aa(lp4699
VDZA
p4700
aVAlgeria
p4701
aI1980
aVAll ages
p4702
aVBoth
p4703
aI236182
aF1245.0
aa(lp4704
VGEO
p4705
aVGeorgia
p4706
aI2000
aV10-14 years
p4707
aVFemale
p4708
aI54
aF27.0
aa(lp4709
VDOM
p4710
aVDominican Republic
p4711
aI2010
aV1-4 years
p4712
aVBoth
p4713
aI1278
aF152.3
aa(lp4714
VGBR
p4715
aVUnited Kingdom
p4716
aI1970
aV50-54 years
p4717
aVFemale
p4718
aI8969
aF547.6
aa(lp4719
VDZA
p4720
aVAlgeria
p4721
aI2010
aV7-27 days
p4722
aVMale
p4723
aI1168
aF5622.5
aa(lp4724
VGBR
p4725
aVUnited Kingdom
p4726
aI1980
aV5-9 years
p4727
aVBoth
p4728
aI1068
aF27.5
aa(lp4729
VDNK
p4730
aVDenmark
p4731
aI2010
aV30-34 years
p4732
aVFemale
p4733
aI55
aF31.7
aa(lp4734
VEST
p4735
aVEstonia
p4736
aI1970
aV15-19 years
p4737
aVBoth
p4738
aI107
aF105.7
aa(lp4739
VEGY
p4740
aVEgypt
p4741
aI2010
aV10-14 years
p4742
aVFemale
p4743
aI1468
aF37.2
aa(lp4744
VEST
p4745
aVEstonia
p4746
aI2010
aV35-39 years
p4747
aVMale
p4748
aI117
aF255.1
aa(lp4749
VEGY
p4750
aVEgypt
p4751
aI1980
aV55-59 years
p4752
aVBoth
p4753
aI19259
aF1554.2
aa(lp4754
VESP
p4755
aVSpain
p4756
aI2010
aV45-49 years
p4757
aVBoth
p4758
aI7209
aF213.1
aa(lp4759
VEGY
p4760
aVEgypt
p4761
aI1990
aV70-74 years
p4762
aVBoth
p4763
aI32204
aF5183.4
aa(lp4764
VFJI
p4765
aVFiji
p4766
aI1970
aV45-49 years
p4767
aVBoth
p4768
aI157
aF877.6
aa(lp4769
VFSM
p4770
aVMicronesia, Federated States of
p4771
aI1970
aV25-29 years
p4772
aVBoth
p4773
aI13
aF319.5
aa(lp4774
VEST
p4775
aVEstonia
p4776
aI1980
aV20-24 years
p4777
aVMale
p4778
aI143
aF240.3
aa(lp4779
VDOM
p4780
aVDominican Republic
p4781
aI2000
aV15-19 years
p4782
aVFemale
p4783
aI230
aF52.0
aa(lp4784
VDZA
p4785
aVAlgeria
p4786
aI2010
aV35-39 years
p4787
aVFemale
p4788
aI1612
aF123.8
aa(lp4789
VEGY
p4790
aVEgypt
p4791
aI2010
aV45-49 years
p4792
aVMale
p4793
aI14160
aF690.8
aa(lp4794
VFSM
p4795
aVMicronesia, Federated States of
p4796
aI1970
aV28-364 days
p4797
aVBoth
p4798
aI107
aF5074.3
aa(lp4799
VERI
p4800
aVEritrea
p4801
aI1980
aV0-6 days
p4802
aVFemale
p4803
aI1077
aF107191.4
aa(lp4804
VFSM
p4805
aVMicronesia, Federated States of
p4806
aI1990
aV7-27 days
p4807
aVBoth
p4808
aI16
aF8743.0
aa(lp4809
VFIN
p4810
aVFinland
p4811
aI1980
aV70-74 years
p4812
aVMale
p4813
aI3890
aF6125.3
aa(lp4814
VDZA
p4815
aVAlgeria
p4816
aI1970
aV30-34 years
p4817
aVBoth
p4818
aI2239
aF315.0
aa(lp4819
VDOM
p4820
aVDominican Republic
p4821
aI2010
aV75-79 years
p4822
aVMale
p4823
aI3613
aF6123.6
aa(lp4824
VEGY
p4825
aVEgypt
p4826
aI2000
aV7-27 days
p4827
aVFemale
p4828
aI4581
aF9458.3
aa(lp4829
VFIN
p4830
aVFinland
p4831
aI2000
aV0-6 days
p4832
aVFemale
p4833
aI48
aF8926.0
aa(lp4834
VGBR
p4835
aVUnited Kingdom
p4836
aI1980
aV15-19 years
p4837
aVBoth
p4838
aI2778
aF59.4
aa(lp4839
VFRA
p4840
aVFrance
p4841
aI1990
aV80+ years
p4842
aVMale
p4843
aI86634
aF13459.4
aa(lp4844
VFSM
p4845
aVMicronesia, Federated States of
p4846
aI1970
aV50-54 years
p4847
aVMale
p4848
aI17
aF1859.5
aa(lp4849
VFRA
p4850
aVFrance
p4851
aI1980
aV20-24 years
p4852
aVMale
p4853
aI3718
aF175.3
aa(lp4854
VERI
p4855
aVEritrea
p4856
aI1970
aV45-49 years
p4857
aVMale
p4858
aI605
aF1914.5
aa(lp4859
VESP
p4860
aVSpain
p4861
aI1990
aV7-27 days
p4862
aVBoth
p4863
aI427
aF1886.5
aa(lp4864
VDOM
p4865
aVDominican Republic
p4866
aI1970
aV5-9 years
p4867
aVFemale
p4868
aI406
aF113.9
aa(lp4869
VETH
p4870
aVEthiopia
p4871
aI1970
aV70-74 years
p4872
aVFemale
p4873
aI11529
aF9254.8
aa(lp4874
VFJI
p4875
aVFiji
p4876
aI2010
aV40-44 years
p4877
aVBoth
p4878
aI288
aF542.0
aa(lp4879
VECU
p4880
aVEcuador
p4881
aI2000
aV28-364 days
p4882
aVMale
p4883
aI2716
aF1927.2
aa(lp4884
VGEO
p4885
aVGeorgia
p4886
aI2010
aV50-54 years
p4887
aVMale
p4888
aI1609
aF1107.7
aa(lp4889
VGAB
p4890
aVGabon
p4891
aI1970
aV75-79 years
p4892
aVFemale
p4893
aI313
aF8242.4
aa(lp4894
VEGY
p4895
aVEgypt
p4896
aI1970
aV80+ years
p4897
aVFemale
p4898
aI7285
aF13266.6
aa(lp4899
VGHA
p4900
aVGhana
p4901
aI1970
aV75-79 years
p4902
aVBoth
p4903
aI3096
aF8056.2
aa(lp4904
VECU
p4905
aVEcuador
p4906
aI1970
aVAll ages
p4907
aVBoth
p4908
aI59184
aF987.3
aa(lp4909
VGHA
p4910
aVGhana
p4911
aI1990
aV10-14 years
p4912
aVFemale
p4913
aI957
aF104.7
aa(lp4914
VDZA
p4915
aVAlgeria
p4916
aI2010
aV65-69 years
p4917
aVBoth
p4918
aI10438
aF1849.3
aa(lp4919
VDZA
p4920
aVAlgeria
p4921
aI1990
aV45-49 years
p4922
aVFemale
p4923
aI1274
aF344.5
aa(lp4924
VDOM
p4925
aVDominican Republic
p4926
aI2010
aV28-364 days
p4927
aVBoth
p4928
aI2126
aF1089.3
aa(lp4929
VFIN
p4930
aVFinland
p4931
aI1980
aV25-29 years
p4932
aVFemale
p4933
aI97
aF48.9
aa(lp4934
VGAB
p4935
aVGabon
p4936
aI1980
aV10-14 years
p4937
aVMale
p4938
aI41
aF124.4
aa(lp4939
VGAB
p4940
aVGabon
p4941
aI2000
aVAll ages
p4942
aVMale
p4943
aI8121
aF1321.7
aa(lp4944
VGHA
p4945
aVGhana
p4946
aI1970
aVAll ages
p4947
aVFemale
p4948
aI47910
aF1110.5
aa(lp4949
VDOM
p4950
aVDominican Republic
p4951
aI1970
aV28-364 days
p4952
aVFemale
p4953
aI3504
aF4422.4
aa(lp4954
VGBR
p4955
aVUnited Kingdom
p4956
aI1980
aV30-34 years
p4957
aVBoth
p4958
aI3395
aF81.4
aa(lp4959
VGEO
p4960
aVGeorgia
p4961
aI1990
aVAll ages
p4962
aVBoth
p4963
aI50727
aF930.5
aa(lp4964
VFIN
p4965
aVFinland
p4966
aI2010
aV75-79 years
p4967
aVFemale
p4968
aI2759
aF2628.8
aa(lp4969
VEST
p4970
aVEstonia
p4971
aI1970
aV75-79 years
p4972
aVBoth
p4973
aI2227
aF7534.8
aa(lp4974
VFSM
p4975
aVMicronesia, Federated States of
p4976
aI2000
aV40-44 years
p4977
aVMale
p4978
aI24
aF934.7
aa(lp4979
VERI
p4980
aVEritrea
p4981
aI1970
aV28-364 days
p4982
aVMale
p4983
aI2554
aF6937.9
aa(lp4984
VFSM
p4985
aVMicronesia, Federated States of
p4986
aI1970
aV0-6 days
p4987
aVBoth
p4988
aI62
aF135014.0
aa(lp4989
VGEO
p4990
aVGeorgia
p4991
aI1980
aV80+ years
p4992
aVMale
p4993
aI4401
aF16379.8
aa(lp4994
VGEO
p4995
aVGeorgia
p4996
aI1990
aV65-69 years
p4997
aVFemale
p4998
aI2125
aF1803.2
aa(lp4999
VESP
p5000
aVSpain
p5001
aI2010
aV35-39 years
p5002
aVMale
p5003
aI2191
aF110.8
aa(lp5004
VGBR
p5005
aVUnited Kingdom
p5006
aI1980
aV35-39 years
p5007
aVBoth
p5008
aI4313
aF124.2
aa(lp5009
VETH
p5010
aVEthiopia
p5011
aI2010
aV65-69 years
p5012
aVFemale
p5013
aI23831
aF3824.9
aa(lp5014
VDZA
p5015
aVAlgeria
p5016
aI1980
aV25-29 years
p5017
aVBoth
p5018
aI3874
aF287.0
aa(lp5019
VFRA
p5020
aVFrance
p5021
aI2010
aV70-74 years
p5022
aVFemale
p5023
aI15775
aF1218.3
aa(lp5024
VECU
p5025
aVEcuador
p5026
aI1990
aV75-79 years
p5027
aVFemale
p5028
aI1790
aF3926.5
aa(lp5029
VEST
p5030
aVEstonia
p5031
aI1970
aV7-27 days
p5032
aVFemale
p5033
aI22
aF3816.8
aa(lp5034
VDZA
p5035
aVAlgeria
p5036
aI2010
aV45-49 years
p5037
aVBoth
p5038
aI5427
aF286.5
aa(lp5039
VECU
p5040
aVEcuador
p5041
aI2000
aV0-6 days
p5042
aVFemale
p5043
aI892
aF31410.0
aa(lp5044
VDOM
p5045
aVDominican Republic
p5046
aI1990
aV40-44 years
p5047
aVBoth
p5048
aI778
aF257.3
aasS'refugee_arrivals_by_country'
p5049
(lp5050
(lp5051
I1230699600000
aI60108
aI576
aNaNaI9
aI30
aI111
aI5320
aNaI18139
aI2889
aI8
aNaI56
aI23
aI50
aI94
aI727
aI197
aI30
aNaI4177
aNaNaI251
aI6
aI299
aI6
aI20
aNaNaI5270
aI13823
aI62
aNaI37
aNaI25
aI59
aI6
aI992
aNaNaI26
aI487
aI76
aI104
aI426
aI108
aNaI99
aI2523
aNaI375
aI24
aNaI204
aNaNaI42
aI1022
aI134
aI1112
aNaNaI3
aI44
aa(lp5052
I1199077200000
aI48218
aI441
aNaI4
aI29
aI78
aI219
aNaNaI13896
aI4545
aI15
aI5
aI15
aI10
aI27
aI54
aI848
aI206
aI11
aNaI2922
aNaI14
aI963
aI6
aI1028
aI13
aI7
aNaNaI5481
aI1608
aI45
aNaI22
aI24
aI17
aI117
aI17
aI1606
aI4
aNaI62
aI565
aI20
aI30
aI1773
aI202
aNaI166
aI6969
aNaI705
aI17
aNaI40
aNaNaI38
aI1605
aI190
aI1500
aI6
aNaNaI28
aa(lp5053
I1167541200000
aI41150
aI651
aNaI13
aI87
aI77
aI350
aNaI16
aI1612
aI466
aI9
aI29
aI23
aI4
aI21
aI115
aI405
aI66
aI23
aNaI3143
aNaI11
aI538
aI7
aI1271
aI6
aI4
aNaI10
aI2792
aI202
aI124
aI5
aI9
aNaI15
aI830
aI21
aI2402
aNaNaI88
aI721
aI15
aI20
aI6003
aI112
aI11
aI439
aI10357
aNaI1848
aI27
aI4
aI18
aNaI3
aI20
aI2483
aI527
aI3039
aI11
aNaI13
aI28
aa(lp5054
I1136005200000
aI53738
aI902
aNaI21
aI86
aI299
aI445
aNaI61
aI1447
aI214
aI9
aI6
aNaNaI13
aI323
aI424
aI43
aI5
aI39
aI6360
aNaI25
aI327
aI17
aI1663
aNaI11
aI8
aI6
aI1856
aI198
aI80
aNaNaNaI38
aI8517
aI25
aI4289
aI9
aNaI3
aI1016
aI11
aI9
aI5982
aI183
aI40
aI829
aI10405
aNaI2205
aI7
aI6
aI72
aNaNaI10
aI2889
aI271
aI2009
aNaNaNaI19
aa(lp5055
I1104469200000
aI52837
aI959
aNaI20
aI88
aI407
aI659
aNaI244
aI1056
aI276
aI3
aNaI24
aI4
aI3
aI577
aI569
aI73
aNaI92
aI2980
aI6
aNaI128
aI27
aI2689
aI3
aI33
aI17
aI5
aI1786
aI66
aI312
aNaNaI14
aI100
aI6005
aI52
aI7140
aI13
aNaNaI1711
aI34
aI11
aI1446
aI176
aI151
aI1086
aI13331
aNaI3500
aNaNaI35
aNaI7
aI8
aI3482
aI426
aI974
aI8
aNaNaI15
aa(lp5056
I1072846800000
aI28304
aI1453
aI4
aI21
aI63
aI406
aI702
aNaI525
aI203
aI16
aI7
aI6
aNaNaI9
aI149
aI251
aI41
aI4
aI144
aI305
aNaI3
aI23
aI28
aI1702
aI9
aI53
aNaI17
aI2471
aI298
aI118
aI3
aNaNaI46
aI13
aI49
aI2957
aI21
aI13
aNaI616
aI57
aI18
aI1394
aI47
aNaI1378
aI1994
aNaI2139
aNaI13
aI47
aNaI4
aNaI5065
aI166
aI1354
aNaI1839
aNaI32
aa(lp5057
I1041310800000
aI26776
aI1683
aNaI16
aI30
aI114
aI680
aNaI3461
aI128
aI62
aI4
aI6
aNaNaI9
aI8
aI107
aI5
aI3
aI109
aI1919
aNaNaI13
aI38
aI330
aNaI14
aI5
aI18
aI1540
aI472
aI222
aI24
aNaI6
aI69
aI18
aI57
aI560
aNaI4
aI6
aI1022
aI28
aNaI2105
aI47
aNaI176
aI237
aNaI897
aI4
aI4
aI16
aNaNaNaI5217
aI394
aI2988
aNaI1860
aNaI35
aa(lp5058
I1009774800000
aI68925
aI2930
aI31
aI34
aI27
aI449
aI971
aNaI14593
aI543
aI109
aI23
aI5
aNaNaI12
aNaI260
aI6
aNaI1020
aI2944
aI12
aNaI109
aI57
aI1429
aI5
aI49
aI24
aI5
aI6590
aI2473
aI291
aI13
aNaNaI116
aI22
aI125
aI3429
aI40
aNaI202
aI1168
aI85
aI3
aI4454
aI94
aNaI2004
aI4951
aI133
aI5959
aI8
aI9
aI280
aI10
aI7
aI12
aI7172
aI681
aI2730
aNaI153
aI6
aI52
aa(lp5059
I978238800000
aI72143
aI1709
aI57
aNaI20
aI259
aI1050
aNaI19033
aI637
aI165
aNaI7
aNaNaNaNaI1354
aI11
aNaI2995
aI3184
aNaI12
aI94
aI81
aI1347
aI13
aI30
aI49
aI14
aI5145
aI3158
aI284
aI11
aNaI13
aI147
aI64
aI103
aI2620
aI16
aNaNaI1056
aI50
aI6
aI3723
aI345
aNaI1128
aI6026
aI282
aI3833
aI18
aI24
aI511
aNaNaI18
aI7334
aI693
aI2841
aNaI524
aNaI38
aa(lp5060
I946616400000
aI85076
aI365
aI12
aNaI35
aI210
aI1008
aNaI22699
aI295
aI223
aNaI9
aNaI22
aNaNaI42
aI27
aI5
aI1660
aI2018
aI8
aNaI32
aI71
aI1873
aI13
aI50
aI91
aI26
aI1750
aI1955
aI412
aNaNaNaI140
aI19
aI167
aI2495
aI20
aI3
aNaI1035
aI625
aNaI4386
aI153
aNaI675
aI4320
aI194
aI2393
aNaI9
aI93
aNaI16
aI12
aI8649
aI818
aI9622
aNaI14280
aNaI33
aas.