(dp0
S'Refugee Arrivals By Country'
p1
(lp2
(lp3
I1230699600000
aI60108
aI576
aNaNaI9
aI30
aI111
aI5320
aNaI18139
aI2889
aI8
aNaI56
aI23
aI50
aI94
aI727
aI197
aI30
aNaI4177
aNaNaI251
aI6
aI299
aI6
aI20
aNaNaI5270
aI13823
aI62
aNaI37
aNaI25
aI59
aI6
aI992
aNaNaI26
aI487
aI76
aI104
aI426
aI108
aNaI99
aI2523
aNaI375
aI24
aNaI204
aNaNaI42
aI1022
aI134
aI1112
aNaNaI3
aI44
aa(lp4
I1199077200000
aI48218
aI441
aNaI4
aI29
aI78
aI219
aNaNaI13896
aI4545
aI15
aI5
aI15
aI10
aI27
aI54
aI848
aI206
aI11
aNaI2922
aNaI14
aI963
aI6
aI1028
aI13
aI7
aNaNaI5481
aI1608
aI45
aNaI22
aI24
aI17
aI117
aI17
aI1606
aI4
aNaI62
aI565
aI20
aI30
aI1773
aI202
aNaI166
aI6969
aNaI705
aI17
aNaI40
aNaNaI38
aI1605
aI190
aI1500
aI6
aNaNaI28
aa(lp5
I1167541200000
aI41150
aI651
aNaI13
aI87
aI77
aI350
aNaI16
aI1612
aI466
aI9
aI29
aI23
aI4
aI21
aI115
aI405
aI66
aI23
aNaI3143
aNaI11
aI538
aI7
aI1271
aI6
aI4
aNaI10
aI2792
aI202
aI124
aI5
aI9
aNaI15
aI830
aI21
aI2402
aNaNaI88
aI721
aI15
aI20
aI6003
aI112
aI11
aI439
aI10357
aNaI1848
aI27
aI4
aI18
aNaI3
aI20
aI2483
aI527
aI3039
aI11
aNaI13
aI28
aa(lp6
I1136005200000
aI53738
aI902
aNaI21
aI86
aI299
aI445
aNaI61
aI1447
aI214
aI9
aI6
aNaNaI13
aI323
aI424
aI43
aI5
aI39
aI6360
aNaI25
aI327
aI17
aI1663
aNaI11
aI8
aI6
aI1856
aI198
aI80
aNaNaNaI38
aI8517
aI25
aI4289
aI9
aNaI3
aI1016
aI11
aI9
aI5982
aI183
aI40
aI829
aI10405
aNaI2205
aI7
aI6
aI72
aNaNaI10
aI2889
aI271
aI2009
aNaNaNaI19
aa(lp7
I1104469200000
aI52837
aI959
aNaI20
aI88
aI407
aI659
aNaI244
aI1056
aI276
aI3
aNaI24
aI4
aI3
aI577
aI569
aI73
aNaI92
aI2980
aI6
aNaI128
aI27
aI2689
aI3
aI33
aI17
aI5
aI1786
aI66
aI312
aNaNaI14
aI100
aI6005
aI52
aI7140
aI13
aNaNaI1711
aI34
aI11
aI1446
aI176
aI151
aI1086
aI13331
aNaI3500
aNaNaI35
aNaI7
aI8
aI3482
aI426
aI974
aI8
aNaNaI15
aa(lp8
I1072846800000
aI28304
aI1453
aI4
aI21
aI63
aI406
aI702
aNaI525
aI203
aI16
aI7
aI6
aNaNaI9
aI149
aI251
aI41
aI4
aI144
aI305
aNaI3
aI23
aI28
aI1702
aI9
aI53
aNaI17
aI2471
aI298
aI118
aI3
aNaNaI46
aI13
aI49
aI2957
aI21
aI13
aNaI616
aI57
aI18
aI1394
aI47
aNaI1378
aI1994
aNaI2139
aNaI13
aI47
aNaI4
aNaI5065
aI166
aI1354
aNaI1839
aNaI32
aa(lp9
I1041310800000
aI26776
aI1683
aNaI16
aI30
aI114
aI680
aNaI3461
aI128
aI62
aI4
aI6
aNaNaI9
aI8
aI107
aI5
aI3
aI109
aI1919
aNaNaI13
aI38
aI330
aNaI14
aI5
aI18
aI1540
aI472
aI222
aI24
aNaI6
aI69
aI18
aI57
aI560
aNaI4
aI6
aI1022
aI28
aNaI2105
aI47
aNaI176
aI237
aNaI897
aI4
aI4
aI16
aNaNaNaI5217
aI394
aI2988
aNaI1860
aNaI35
aa(lp10
I1009774800000
aI68925
aI2930
aI31
aI34
aI27
aI449
aI971
aNaI14593
aI543
aI109
aI23
aI5
aNaNaI12
aNaI260
aI6
aNaI1020
aI2944
aI12
aNaI109
aI57
aI1429
aI5
aI49
aI24
aI5
aI6590
aI2473
aI291
aI13
aNaNaI116
aI22
aI125
aI3429
aI40
aNaI202
aI1168
aI85
aI3
aI4454
aI94
aNaI2004
aI4951
aI133
aI5959
aI8
aI9
aI280
aI10
aI7
aI12
aI7172
aI681
aI2730
aNaI153
aI6
aI52
aa(lp11
I978238800000
aI72143
aI1709
aI57
aNaI20
aI259
aI1050
aNaI19033
aI637
aI165
aNaI7
aNaNaNaNaI1354
aI11
aNaI2995
aI3184
aNaI12
aI94
aI81
aI1347
aI13
aI30
aI49
aI14
aI5145
aI3158
aI284
aI11
aNaI13
aI147
aI64
aI103
aI2620
aI16
aNaNaI1056
aI50
aI6
aI3723
aI345
aNaI1128
aI6026
aI282
aI3833
aI18
aI24
aI511
aNaNaI18
aI7334
aI693
aI2841
aNaI524
aNaI38
aa(lp12
I946616400000
aI85076
aI365
aI12
aNaI35
aI210
aI1008
aNaI22699
aI295
aI223
aNaI9
aNaI22
aNaNaI42
aI27
aI5
aI1660
aI2018
aI8
aNaI32
aI71
aI1873
aI13
aI50
aI91
aI26
aI1750
aI1955
aI412
aNaNaNaI140
aI19
aI167
aI2495
aI20
aI3
aNaI1035
aI625
aNaI4386
aI153
aNaI675
aI4320
aI194
aI2393
aNaI9
aI93
aNaI16
aI12
aI8649
aI818
aI9622
aNaI14280
aNaI33
aas.